   1              		.cpu cortex-m4
   2              		.arch armv7e-m
   3              		.fpu fpv4-sp-d16
   4              		.eabi_attribute 27, 1
   5              		.eabi_attribute 28, 1
   6              		.eabi_attribute 20, 1
   7              		.eabi_attribute 21, 1
   8              		.eabi_attribute 23, 3
   9              		.eabi_attribute 24, 1
  10              		.eabi_attribute 25, 1
  11              		.eabi_attribute 26, 1
  12              		.eabi_attribute 30, 2
  13              		.eabi_attribute 34, 1
  14              		.eabi_attribute 18, 4
  15              		.file	"system_nrf52.c"
  16              		.text
  17              	.Ltext0:
  18              		.cfi_sections	.debug_frame
  19              		.file 1 "system_nrf52.c"
  20              		.section	.text.nvmc_wait,"ax",%progbits
  21              		.align	1
  22              		.p2align 2,,3
  23              		.global	nvmc_wait
  24              		.syntax unified
  25              		.thumb
  26              		.thumb_func
  28              	nvmc_wait:
  29              	.LFB340:
   1:system_nrf52.c **** /*
   2:system_nrf52.c **** 
   3:system_nrf52.c **** Copyright (c) 2009-2024 ARM Limited. All rights reserved.
   4:system_nrf52.c **** 
   5:system_nrf52.c ****     SPDX-License-Identifier: Apache-2.0
   6:system_nrf52.c **** 
   7:system_nrf52.c **** Licensed under the Apache License, Version 2.0 (the License); you may
   8:system_nrf52.c **** not use this file except in compliance with the License.
   9:system_nrf52.c **** You may obtain a copy of the License at
  10:system_nrf52.c **** 
  11:system_nrf52.c ****     www.apache.org/licenses/LICENSE-2.0
  12:system_nrf52.c **** 
  13:system_nrf52.c **** Unless required by applicable law or agreed to in writing, software
  14:system_nrf52.c **** distributed under the License is distributed on an AS IS BASIS, WITHOUT
  15:system_nrf52.c **** WARRANTIES OR CONDITIONS OF ANY KIND, either express or implied.
  16:system_nrf52.c **** See the License for the specific language governing permissions and
  17:system_nrf52.c **** limitations under the License.
  18:system_nrf52.c **** 
  19:system_nrf52.c **** NOTICE: This file has been modified by Nordic Semiconductor ASA.
  20:system_nrf52.c **** 
  21:system_nrf52.c **** */
  22:system_nrf52.c **** 
  23:system_nrf52.c **** /* NOTE: Template files (including this one) are application specific and therefore expected to
  24:system_nrf52.c ****    be copied into the application project folder prior to its use! */
  25:system_nrf52.c **** 
  26:system_nrf52.c **** #include <stdint.h>
  27:system_nrf52.c **** #include <stdbool.h>
  28:system_nrf52.c **** #include "nrf.h"
  29:system_nrf52.c **** #include "nrf_peripherals.h"
  30:system_nrf52.c **** #include "nrf52_erratas.h"
  31:system_nrf52.c **** #include "system_nrf52.h"
  32:system_nrf52.c **** #include "system_nrf52_approtect.h"
  33:system_nrf52.c **** 
  34:system_nrf52.c **** #define __SYSTEM_CLOCK_DEFAULT      (64000000UL)
  35:system_nrf52.c **** 
  36:system_nrf52.c **** 
  37:system_nrf52.c **** #if defined ( __CC_ARM ) || defined ( __GNUC__ )
  38:system_nrf52.c ****     uint32_t SystemCoreClock __attribute__((used)) = __SYSTEM_CLOCK_DEFAULT;
  39:system_nrf52.c **** #elif defined ( __ICCARM__ )
  40:system_nrf52.c ****     __root uint32_t SystemCoreClock = __SYSTEM_CLOCK_DEFAULT;
  41:system_nrf52.c **** #endif
  42:system_nrf52.c **** 
  43:system_nrf52.c **** /* Simplify later device detection macros. Check DEVELOP_IN first, as they take precedence. */
  44:system_nrf52.c **** #if   defined (DEVELOP_IN_NRF52805)
  45:system_nrf52.c ****     #define IS_NRF52805 1ul
  46:system_nrf52.c **** #elif defined (DEVELOP_IN_NRF52810)
  47:system_nrf52.c ****     #define IS_NRF52810 1ul
  48:system_nrf52.c **** #elif defined (DEVELOP_IN_NRF52811)
  49:system_nrf52.c ****     #define IS_NRF52811 1ul
  50:system_nrf52.c **** #elif defined (DEVELOP_IN_NRF52820)
  51:system_nrf52.c ****     #define IS_NRF52820 1ul
  52:system_nrf52.c **** #elif defined (DEVELOP_IN_NRF52832)
  53:system_nrf52.c ****     #define IS_NRF52832 1
  54:system_nrf52.c **** #elif defined (DEVELOP_IN_NRF52833)
  55:system_nrf52.c ****     #define IS_NRF52833 1
  56:system_nrf52.c **** #elif defined (DEVELOP_IN_NRF52840)
  57:system_nrf52.c ****     #define IS_NRF52840 1ul
  58:system_nrf52.c **** #elif defined (NRF52805_XXAA)
  59:system_nrf52.c ****     #define IS_NRF52805 1ul
  60:system_nrf52.c **** #elif defined (NRF52810_XXAA)
  61:system_nrf52.c ****     #define IS_NRF52810 1ul
  62:system_nrf52.c **** #elif defined (NRF52811_XXAA)
  63:system_nrf52.c ****     #define IS_NRF52811 1ul
  64:system_nrf52.c **** #elif defined (NRF52820_XXAA)
  65:system_nrf52.c ****     #define IS_NRF52820 1ul
  66:system_nrf52.c **** #elif defined (NRF52832_XXAA) || defined (NRF52832_XXAB)
  67:system_nrf52.c ****     #define IS_NRF52832 1ul
  68:system_nrf52.c **** #elif defined (NRF52833_XXAA)
  69:system_nrf52.c ****     #define IS_NRF52833 1ul
  70:system_nrf52.c **** #elif defined (NRF52840_XXAA)
  71:system_nrf52.c ****     #define IS_NRF52840 1ul
  72:system_nrf52.c **** #else
  73:system_nrf52.c ****     #error "A supported device macro must be defined."
  74:system_nrf52.c **** #endif
  75:system_nrf52.c **** 
  76:system_nrf52.c **** /* Trace configuration */
  77:system_nrf52.c **** #define TRACE_PIN_CONFIG ((GPIO_PIN_CNF_DRIVE_H0H1 << GPIO_PIN_CNF_DRIVE_Pos) \
  78:system_nrf52.c ****                         | (GPIO_PIN_CNF_INPUT_Connect << GPIO_PIN_CNF_INPUT_Pos) \
  79:system_nrf52.c ****                         | (GPIO_PIN_CNF_DIR_Output << GPIO_PIN_CNF_DIR_Pos))
  80:system_nrf52.c **** 
  81:system_nrf52.c **** #if defined (IS_NRF52832) && IS_NRF52832
  82:system_nrf52.c ****     #define TRACECLK_PIN_CNF NRF_P0->PIN_CNF[20]
  83:system_nrf52.c ****     #define TRACEDATA0_PIN_CNF NRF_P0->PIN_CNF[18]
  84:system_nrf52.c ****     #define TRACEDATA1_PIN_CNF NRF_P0->PIN_CNF[16]
  85:system_nrf52.c ****     #define TRACEDATA2_PIN_CNF NRF_P0->PIN_CNF[15]
  86:system_nrf52.c ****     #define TRACEDATA3_PIN_CNF NRF_P0->PIN_CNF[14]
  87:system_nrf52.c **** #elif (defined (IS_NRF52833) && IS_NRF52833) || (defined (IS_NRF52840) && IS_NRF52840)
  88:system_nrf52.c ****     #define TRACECLK_PIN_CNF NRF_P0->PIN_CNF[7]
  89:system_nrf52.c ****     #define TRACEDATA0_PIN_CNF NRF_P1->PIN_CNF[0]
  90:system_nrf52.c ****     #define TRACEDATA1_PIN_CNF NRF_P0->PIN_CNF[12]
  91:system_nrf52.c ****     #define TRACEDATA2_PIN_CNF NRF_P0->PIN_CNF[11]
  92:system_nrf52.c ****     #define TRACEDATA3_PIN_CNF NRF_P1->PIN_CNF[9]
  93:system_nrf52.c **** #else
  94:system_nrf52.c ****     /* No trace supported */
  95:system_nrf52.c **** #endif
  96:system_nrf52.c **** 
  97:system_nrf52.c **** /* Select correct reset pin */
  98:system_nrf52.c **** /* Handle DEVELOP_IN-targets first as they take precedence over the later macros */
  99:system_nrf52.c **** #if (defined(IS_NRF52805) && IS_NRF52805) || \
 100:system_nrf52.c ****     (defined(IS_NRF52810) && IS_NRF52810) || \
 101:system_nrf52.c ****     (defined(IS_NRF52811) && IS_NRF52811) || \
 102:system_nrf52.c ****     (defined(IS_NRF52832) && IS_NRF52832)
 103:system_nrf52.c ****     #define RESET_PIN 21ul
 104:system_nrf52.c **** #elif (defined(IS_NRF52820) && IS_NRF52820) || \
 105:system_nrf52.c ****       (defined(IS_NRF52833) && IS_NRF52833) || \
 106:system_nrf52.c ****       (defined(IS_NRF52840) && IS_NRF52840)
 107:system_nrf52.c ****     #define RESET_PIN 18ul
 108:system_nrf52.c **** #else
 109:system_nrf52.c ****     #error "A supported device macro must be defined."
 110:system_nrf52.c **** #endif
 111:system_nrf52.c **** 
 112:system_nrf52.c **** /* -- NVMC utility functions -- */
 113:system_nrf52.c **** /* Waits until NVMC is done with the current pending action */
 114:system_nrf52.c **** void nvmc_wait(void)
 115:system_nrf52.c **** {
  30              		.loc 1 115 1 view -0
  31              		.cfi_startproc
  32              		@ args = 0, pretend = 0, frame = 0
  33              		@ frame_needed = 0, uses_anonymous_args = 0
  34              		@ link register save eliminated.
 116:system_nrf52.c ****     while (NRF_NVMC->READY == NVMC_READY_READY_Busy){}
  35              		.loc 1 116 5 view .LVU1
  36              		.loc 1 116 20 is_stmt 0 discriminator 1 view .LVU2
  37 0000 024A     		ldr	r2, .L6
  38              	.L2:
  39              		.loc 1 116 54 is_stmt 1 discriminator 1 view .LVU3
  40              		.loc 1 116 28 discriminator 1 view .LVU4
  41              		.loc 1 116 20 is_stmt 0 discriminator 1 view .LVU5
  42 0002 D2F80034 		ldr	r3, [r2, #1024]
  43              		.loc 1 116 28 discriminator 1 view .LVU6
  44 0006 002B     		cmp	r3, #0
  45 0008 FBD0     		beq	.L2
 117:system_nrf52.c **** }
  46              		.loc 1 117 1 view .LVU7
  47 000a 7047     		bx	lr
  48              	.L7:
  49              		.align	2
  50              	.L6:
  51 000c 00E00140 		.word	1073864704
  52              		.cfi_endproc
  53              	.LFE340:
  55              		.section	.text.nvmc_config,"ax",%progbits
  56              		.align	1
  57              		.p2align 2,,3
  58              		.global	nvmc_config
  59              		.syntax unified
  60              		.thumb
  61              		.thumb_func
  63              	nvmc_config:
  64              	.LVL0:
  65              	.LFB341:
 118:system_nrf52.c **** 
 119:system_nrf52.c **** /*  Configure the NVMC to "mode".
 120:system_nrf52.c ****     Mode must be an enumerator of field NVMC_CONFIG_WEN */
 121:system_nrf52.c **** void nvmc_config(uint32_t mode)
 122:system_nrf52.c **** {
  66              		.loc 1 122 1 is_stmt 1 view -0
  67              		.cfi_startproc
  68              		@ args = 0, pretend = 0, frame = 0
  69              		@ frame_needed = 0, uses_anonymous_args = 0
  70              		@ link register save eliminated.
 123:system_nrf52.c ****     NRF_NVMC->CONFIG = mode << NVMC_CONFIG_WEN_Pos;
  71              		.loc 1 123 5 view .LVU9
  72              		.loc 1 123 22 is_stmt 0 view .LVU10
  73 0000 034A     		ldr	r2, .L12
  74 0002 C2F80405 		str	r0, [r2, #1284]
 124:system_nrf52.c ****     nvmc_wait();
  75              		.loc 1 124 5 is_stmt 1 view .LVU11
  76              	.LBB24:
  77              	.LBI24:
 114:system_nrf52.c **** {
  78              		.loc 1 114 6 view .LVU12
  79              	.LBB25:
 116:system_nrf52.c **** }
  80              		.loc 1 116 5 view .LVU13
  81              	.L9:
 116:system_nrf52.c **** }
  82              		.loc 1 116 54 discriminator 1 view .LVU14
 116:system_nrf52.c **** }
  83              		.loc 1 116 28 discriminator 1 view .LVU15
 116:system_nrf52.c **** }
  84              		.loc 1 116 20 is_stmt 0 discriminator 1 view .LVU16
  85 0006 D2F80034 		ldr	r3, [r2, #1024]
 116:system_nrf52.c **** }
  86              		.loc 1 116 28 discriminator 1 view .LVU17
  87 000a 002B     		cmp	r3, #0
  88 000c FBD0     		beq	.L9
  89              	.LBE25:
  90              	.LBE24:
 125:system_nrf52.c **** }
  91              		.loc 1 125 1 view .LVU18
  92 000e 7047     		bx	lr
  93              	.L13:
  94              		.align	2
  95              	.L12:
  96 0010 00E00140 		.word	1073864704
  97              		.cfi_endproc
  98              	.LFE341:
 100              		.section	.text.SystemCoreClockUpdate,"ax",%progbits
 101              		.align	1
 102              		.p2align 2,,3
 103              		.global	SystemCoreClockUpdate
 104              		.syntax unified
 105              		.thumb
 106              		.thumb_func
 108              	SystemCoreClockUpdate:
 109              	.LFB342:
 126:system_nrf52.c **** 
 127:system_nrf52.c **** void SystemCoreClockUpdate(void)
 128:system_nrf52.c **** {
 110              		.loc 1 128 1 is_stmt 1 view -0
 111              		.cfi_startproc
 112              		@ args = 0, pretend = 0, frame = 0
 113              		@ frame_needed = 0, uses_anonymous_args = 0
 114              		@ link register save eliminated.
 129:system_nrf52.c ****     SystemCoreClock = __SYSTEM_CLOCK_DEFAULT;
 115              		.loc 1 129 5 view .LVU20
 116              		.loc 1 129 21 is_stmt 0 view .LVU21
 117 0000 014B     		ldr	r3, .L15
 118 0002 024A     		ldr	r2, .L15+4
 119 0004 1A60     		str	r2, [r3]
 130:system_nrf52.c **** }
 120              		.loc 1 130 1 view .LVU22
 121 0006 7047     		bx	lr
 122              	.L16:
 123              		.align	2
 124              	.L15:
 125 0008 00000000 		.word	SystemCoreClock
 126 000c 0090D003 		.word	64000000
 127              		.cfi_endproc
 128              	.LFE342:
 130              		.section	.text.SystemInit,"ax",%progbits
 131              		.align	1
 132              		.p2align 2,,3
 133              		.global	SystemInit
 134              		.syntax unified
 135              		.thumb
 136              		.thumb_func
 138              	SystemInit:
 139              	.LFB343:
 131:system_nrf52.c **** 
 132:system_nrf52.c **** void SystemInit(void)
 133:system_nrf52.c **** {
 140              		.loc 1 133 1 is_stmt 1 view -0
 141              		.cfi_startproc
 142              		@ args = 0, pretend = 0, frame = 0
 143              		@ frame_needed = 0, uses_anonymous_args = 0
 144              		@ link register save eliminated.
 134:system_nrf52.c ****     /* Enable SWO trace functionality. If ENABLE_SWO is not defined, SWO pin will be used as GPIO (
 135:system_nrf52.c ****        Specification to see which one). */
 136:system_nrf52.c ****     #if defined (ENABLE_SWO) && defined(CLOCK_TRACECONFIG_TRACEMUX_Pos)
 137:system_nrf52.c ****         CoreDebug->DEMCR |= CoreDebug_DEMCR_TRCENA_Msk;
 138:system_nrf52.c ****         NRF_CLOCK->TRACECONFIG |= CLOCK_TRACECONFIG_TRACEMUX_Serial << CLOCK_TRACECONFIG_TRACEMUX_P
 139:system_nrf52.c ****         TRACEDATA0_PIN_CNF = TRACE_PIN_CONFIG;
 140:system_nrf52.c ****     #endif
 141:system_nrf52.c **** 
 142:system_nrf52.c ****     /* Enable Trace functionality. If ENABLE_TRACE is not defined, TRACE pins will be used as GPIOs
 143:system_nrf52.c ****        Specification to see which ones). */
 144:system_nrf52.c ****     #if defined (ENABLE_TRACE) && defined(CLOCK_TRACECONFIG_TRACEMUX_Pos)
 145:system_nrf52.c ****         CoreDebug->DEMCR |= CoreDebug_DEMCR_TRCENA_Msk;
 146:system_nrf52.c ****         NRF_CLOCK->TRACECONFIG |= CLOCK_TRACECONFIG_TRACEMUX_Parallel << CLOCK_TRACECONFIG_TRACEMUX
 147:system_nrf52.c ****         TRACECLK_PIN_CNF =   TRACE_PIN_CONFIG;
 148:system_nrf52.c ****         TRACEDATA0_PIN_CNF = TRACE_PIN_CONFIG;
 149:system_nrf52.c ****         TRACEDATA1_PIN_CNF = TRACE_PIN_CONFIG;
 150:system_nrf52.c ****         TRACEDATA2_PIN_CNF = TRACE_PIN_CONFIG;
 151:system_nrf52.c ****         TRACEDATA3_PIN_CNF = TRACE_PIN_CONFIG;
 152:system_nrf52.c ****     #endif
 153:system_nrf52.c **** 
 154:system_nrf52.c ****     #if NRF52_ERRATA_12_ENABLE_WORKAROUND
 155:system_nrf52.c ****         /* Workaround for Errata 12 "COMP: Reference ladder not correctly calibrated" found at the 
 156:system_nrf52.c ****            for your device located at https://infocenter.nordicsemi.com/index.jsp */
 157:system_nrf52.c ****         if (nrf52_errata_12()){
 158:system_nrf52.c ****             *(volatile uint32_t *)0x40013540 = (*(uint32_t *)0x10000324 & 0x00001F00) >> 8;
 159:system_nrf52.c ****         }
 160:system_nrf52.c ****     #endif
 161:system_nrf52.c **** 
 162:system_nrf52.c ****     #if NRF52_ERRATA_16_ENABLE_WORKAROUND
 163:system_nrf52.c ****         /* Workaround for Errata 16 "System: RAM may be corrupt on wakeup from CPU IDLE" found at t
 164:system_nrf52.c ****            for your device located at https://infocenter.nordicsemi.com/index.jsp */
 165:system_nrf52.c ****         if (nrf52_errata_16()){
 166:system_nrf52.c ****             *(volatile uint32_t *)0x4007C074 = 3131961357ul;
 167:system_nrf52.c ****         }
 168:system_nrf52.c ****     #endif
 169:system_nrf52.c **** 
 170:system_nrf52.c ****     #if NRF52_ERRATA_31_ENABLE_WORKAROUND
 171:system_nrf52.c ****         /* Workaround for Errata 31 "CLOCK: Calibration values are not correctly loaded from FICR a
 172:system_nrf52.c ****            for your device located at https://infocenter.nordicsemi.com/index.jsp */
 173:system_nrf52.c ****         if (nrf52_errata_31()){
 174:system_nrf52.c ****             *(volatile uint32_t *)0x4000053C = ((*(volatile uint32_t *)0x10000244) & 0x0000E000) >>
 175:system_nrf52.c ****         }
 176:system_nrf52.c ****     #endif
 177:system_nrf52.c **** 
 178:system_nrf52.c ****     #if NRF52_ERRATA_32_ENABLE_WORKAROUND
 179:system_nrf52.c ****         /* Workaround for Errata 32 "DIF: Debug session automatically enables TracePort pins" found
 180:system_nrf52.c ****            for your device located at https://infocenter.nordicsemi.com/index.jsp */
 181:system_nrf52.c ****         if (nrf52_errata_32()){
 182:system_nrf52.c ****             CoreDebug->DEMCR &= ~CoreDebug_DEMCR_TRCENA_Msk;
 183:system_nrf52.c ****         }
 184:system_nrf52.c ****     #endif
 185:system_nrf52.c **** 
 186:system_nrf52.c ****     #if NRF52_ERRATA_36_ENABLE_WORKAROUND
 187:system_nrf52.c ****         /* Workaround for Errata 36 "CLOCK: Some registers are not reset when expected" found at th
 188:system_nrf52.c ****            for your device located at https://infocenter.nordicsemi.com/index.jsp  */
 189:system_nrf52.c ****         if (nrf52_errata_36()){
 145              		.loc 1 189 9 view .LVU24
 146              	.LBB48:
 147              	.LBI48:
 148              		.file 2 "./Include/nrf52_erratas.h"
   1:./Include/nrf52_erratas.h **** #ifndef NRF52_ERRATAS_H
   2:./Include/nrf52_erratas.h **** #define NRF52_ERRATAS_H
   3:./Include/nrf52_erratas.h **** 
   4:./Include/nrf52_erratas.h **** /*
   5:./Include/nrf52_erratas.h **** 
   6:./Include/nrf52_erratas.h **** Copyright (c) 2010 - 2024, Nordic Semiconductor ASA All rights reserved.
   7:./Include/nrf52_erratas.h **** 
   8:./Include/nrf52_erratas.h **** SPDX-License-Identifier: BSD-3-Clause
   9:./Include/nrf52_erratas.h **** 
  10:./Include/nrf52_erratas.h **** Redistribution and use in source and binary forms, with or without
  11:./Include/nrf52_erratas.h **** modification, are permitted provided that the following conditions are met:
  12:./Include/nrf52_erratas.h **** 
  13:./Include/nrf52_erratas.h **** 1. Redistributions of source code must retain the above copyright notice, this
  14:./Include/nrf52_erratas.h ****    list of conditions and the following disclaimer.
  15:./Include/nrf52_erratas.h **** 
  16:./Include/nrf52_erratas.h **** 2. Redistributions in binary form must reproduce the above copyright
  17:./Include/nrf52_erratas.h ****    notice, this list of conditions and the following disclaimer in the
  18:./Include/nrf52_erratas.h ****    documentation and/or other materials provided with the distribution.
  19:./Include/nrf52_erratas.h **** 
  20:./Include/nrf52_erratas.h **** 3. Neither the name of Nordic Semiconductor ASA nor the names of its
  21:./Include/nrf52_erratas.h ****    contributors may be used to endorse or promote products derived from this
  22:./Include/nrf52_erratas.h ****    software without specific prior written permission.
  23:./Include/nrf52_erratas.h **** 
  24:./Include/nrf52_erratas.h **** THIS SOFTWARE IS PROVIDED BY THE COPYRIGHT HOLDERS AND CONTRIBUTORS "AS IS"
  25:./Include/nrf52_erratas.h **** AND ANY EXPRESS OR IMPLIED WARRANTIES, INCLUDING, BUT NOT LIMITED TO, THE
  26:./Include/nrf52_erratas.h **** IMPLIED WARRANTIES OF MERCHANTABILITY, AND FITNESS FOR A PARTICULAR PURPOSE
  27:./Include/nrf52_erratas.h **** ARE DISCLAIMED. IN NO EVENT SHALL NORDIC SEMICONDUCTOR ASA OR CONTRIBUTORS BE
  28:./Include/nrf52_erratas.h **** LIABLE FOR ANY DIRECT, INDIRECT, INCIDENTAL, SPECIAL, EXEMPLARY, OR
  29:./Include/nrf52_erratas.h **** CONSEQUENTIAL DAMAGES (INCLUDING, BUT NOT LIMITED TO, PROCUREMENT OF
  30:./Include/nrf52_erratas.h **** SUBSTITUTE GOODS OR SERVICES; LOSS OF USE, DATA, OR PROFITS; OR BUSINESS
  31:./Include/nrf52_erratas.h **** INTERRUPTION) HOWEVER CAUSED AND ON ANY THEORY OF LIABILITY, WHETHER IN
  32:./Include/nrf52_erratas.h **** CONTRACT, STRICT LIABILITY, OR TORT (INCLUDING NEGLIGENCE OR OTHERWISE)
  33:./Include/nrf52_erratas.h **** ARISING IN ANY WAY OUT OF THE USE OF THIS SOFTWARE, EVEN IF ADVISED OF THE
  34:./Include/nrf52_erratas.h **** POSSIBILITY OF SUCH DAMAGE.
  35:./Include/nrf52_erratas.h **** 
  36:./Include/nrf52_erratas.h **** */
  37:./Include/nrf52_erratas.h **** 
  38:./Include/nrf52_erratas.h **** #include <stdint.h>
  39:./Include/nrf52_erratas.h **** #include <stdbool.h>
  40:./Include/nrf52_erratas.h **** #include "compiler_abstraction.h"
  41:./Include/nrf52_erratas.h **** 
  42:./Include/nrf52_erratas.h **** static bool nrf52_errata_1(void) __UNUSED;
  43:./Include/nrf52_erratas.h **** static bool nrf52_errata_2(void) __UNUSED;
  44:./Include/nrf52_erratas.h **** static bool nrf52_errata_3(void) __UNUSED;
  45:./Include/nrf52_erratas.h **** static bool nrf52_errata_4(void) __UNUSED;
  46:./Include/nrf52_erratas.h **** static bool nrf52_errata_7(void) __UNUSED;
  47:./Include/nrf52_erratas.h **** static bool nrf52_errata_8(void) __UNUSED;
  48:./Include/nrf52_erratas.h **** static bool nrf52_errata_9(void) __UNUSED;
  49:./Include/nrf52_erratas.h **** static bool nrf52_errata_10(void) __UNUSED;
  50:./Include/nrf52_erratas.h **** static bool nrf52_errata_11(void) __UNUSED;
  51:./Include/nrf52_erratas.h **** static bool nrf52_errata_12(void) __UNUSED;
  52:./Include/nrf52_erratas.h **** static bool nrf52_errata_15(void) __UNUSED;
  53:./Include/nrf52_erratas.h **** static bool nrf52_errata_16(void) __UNUSED;
  54:./Include/nrf52_erratas.h **** static bool nrf52_errata_17(void) __UNUSED;
  55:./Include/nrf52_erratas.h **** static bool nrf52_errata_20(void) __UNUSED;
  56:./Include/nrf52_erratas.h **** static bool nrf52_errata_23(void) __UNUSED;
  57:./Include/nrf52_erratas.h **** static bool nrf52_errata_24(void) __UNUSED;
  58:./Include/nrf52_erratas.h **** static bool nrf52_errata_25(void) __UNUSED;
  59:./Include/nrf52_erratas.h **** static bool nrf52_errata_26(void) __UNUSED;
  60:./Include/nrf52_erratas.h **** static bool nrf52_errata_27(void) __UNUSED;
  61:./Include/nrf52_erratas.h **** static bool nrf52_errata_28(void) __UNUSED;
  62:./Include/nrf52_erratas.h **** static bool nrf52_errata_29(void) __UNUSED;
  63:./Include/nrf52_erratas.h **** static bool nrf52_errata_30(void) __UNUSED;
  64:./Include/nrf52_erratas.h **** static bool nrf52_errata_31(void) __UNUSED;
  65:./Include/nrf52_erratas.h **** static bool nrf52_errata_32(void) __UNUSED;
  66:./Include/nrf52_erratas.h **** static bool nrf52_errata_33(void) __UNUSED;
  67:./Include/nrf52_erratas.h **** static bool nrf52_errata_34(void) __UNUSED;
  68:./Include/nrf52_erratas.h **** static bool nrf52_errata_35(void) __UNUSED;
  69:./Include/nrf52_erratas.h **** static bool nrf52_errata_36(void) __UNUSED;
  70:./Include/nrf52_erratas.h **** static bool nrf52_errata_37(void) __UNUSED;
  71:./Include/nrf52_erratas.h **** static bool nrf52_errata_38(void) __UNUSED;
  72:./Include/nrf52_erratas.h **** static bool nrf52_errata_39(void) __UNUSED;
  73:./Include/nrf52_erratas.h **** static bool nrf52_errata_40(void) __UNUSED;
  74:./Include/nrf52_erratas.h **** static bool nrf52_errata_41(void) __UNUSED;
  75:./Include/nrf52_erratas.h **** static bool nrf52_errata_42(void) __UNUSED;
  76:./Include/nrf52_erratas.h **** static bool nrf52_errata_43(void) __UNUSED;
  77:./Include/nrf52_erratas.h **** static bool nrf52_errata_44(void) __UNUSED;
  78:./Include/nrf52_erratas.h **** static bool nrf52_errata_46(void) __UNUSED;
  79:./Include/nrf52_erratas.h **** static bool nrf52_errata_47(void) __UNUSED;
  80:./Include/nrf52_erratas.h **** static bool nrf52_errata_48(void) __UNUSED;
  81:./Include/nrf52_erratas.h **** static bool nrf52_errata_49(void) __UNUSED;
  82:./Include/nrf52_erratas.h **** static bool nrf52_errata_51(void) __UNUSED;
  83:./Include/nrf52_erratas.h **** static bool nrf52_errata_54(void) __UNUSED;
  84:./Include/nrf52_erratas.h **** static bool nrf52_errata_55(void) __UNUSED;
  85:./Include/nrf52_erratas.h **** static bool nrf52_errata_57(void) __UNUSED;
  86:./Include/nrf52_erratas.h **** static bool nrf52_errata_58(void) __UNUSED;
  87:./Include/nrf52_erratas.h **** static bool nrf52_errata_62(void) __UNUSED;
  88:./Include/nrf52_erratas.h **** static bool nrf52_errata_63(void) __UNUSED;
  89:./Include/nrf52_erratas.h **** static bool nrf52_errata_64(void) __UNUSED;
  90:./Include/nrf52_erratas.h **** static bool nrf52_errata_65(void) __UNUSED;
  91:./Include/nrf52_erratas.h **** static bool nrf52_errata_66(void) __UNUSED;
  92:./Include/nrf52_erratas.h **** static bool nrf52_errata_67(void) __UNUSED;
  93:./Include/nrf52_erratas.h **** static bool nrf52_errata_68(void) __UNUSED;
  94:./Include/nrf52_erratas.h **** static bool nrf52_errata_70(void) __UNUSED;
  95:./Include/nrf52_erratas.h **** static bool nrf52_errata_71(void) __UNUSED;
  96:./Include/nrf52_erratas.h **** static bool nrf52_errata_72(void) __UNUSED;
  97:./Include/nrf52_erratas.h **** static bool nrf52_errata_73(void) __UNUSED;
  98:./Include/nrf52_erratas.h **** static bool nrf52_errata_74(void) __UNUSED;
  99:./Include/nrf52_erratas.h **** static bool nrf52_errata_75(void) __UNUSED;
 100:./Include/nrf52_erratas.h **** static bool nrf52_errata_76(void) __UNUSED;
 101:./Include/nrf52_erratas.h **** static bool nrf52_errata_77(void) __UNUSED;
 102:./Include/nrf52_erratas.h **** static bool nrf52_errata_78(void) __UNUSED;
 103:./Include/nrf52_erratas.h **** static bool nrf52_errata_79(void) __UNUSED;
 104:./Include/nrf52_erratas.h **** static bool nrf52_errata_81(void) __UNUSED;
 105:./Include/nrf52_erratas.h **** static bool nrf52_errata_83(void) __UNUSED;
 106:./Include/nrf52_erratas.h **** static bool nrf52_errata_84(void) __UNUSED;
 107:./Include/nrf52_erratas.h **** static bool nrf52_errata_86(void) __UNUSED;
 108:./Include/nrf52_erratas.h **** static bool nrf52_errata_87(void) __UNUSED;
 109:./Include/nrf52_erratas.h **** static bool nrf52_errata_88(void) __UNUSED;
 110:./Include/nrf52_erratas.h **** static bool nrf52_errata_89(void) __UNUSED;
 111:./Include/nrf52_erratas.h **** static bool nrf52_errata_91(void) __UNUSED;
 112:./Include/nrf52_erratas.h **** static bool nrf52_errata_94(void) __UNUSED;
 113:./Include/nrf52_erratas.h **** static bool nrf52_errata_96(void) __UNUSED;
 114:./Include/nrf52_erratas.h **** static bool nrf52_errata_97(void) __UNUSED;
 115:./Include/nrf52_erratas.h **** static bool nrf52_errata_98(void) __UNUSED;
 116:./Include/nrf52_erratas.h **** static bool nrf52_errata_101(void) __UNUSED;
 117:./Include/nrf52_erratas.h **** static bool nrf52_errata_102(void) __UNUSED;
 118:./Include/nrf52_erratas.h **** static bool nrf52_errata_103(void) __UNUSED;
 119:./Include/nrf52_erratas.h **** static bool nrf52_errata_104(void) __UNUSED;
 120:./Include/nrf52_erratas.h **** static bool nrf52_errata_106(void) __UNUSED;
 121:./Include/nrf52_erratas.h **** static bool nrf52_errata_107(void) __UNUSED;
 122:./Include/nrf52_erratas.h **** static bool nrf52_errata_108(void) __UNUSED;
 123:./Include/nrf52_erratas.h **** static bool nrf52_errata_109(void) __UNUSED;
 124:./Include/nrf52_erratas.h **** static bool nrf52_errata_110(void) __UNUSED;
 125:./Include/nrf52_erratas.h **** static bool nrf52_errata_111(void) __UNUSED;
 126:./Include/nrf52_erratas.h **** static bool nrf52_errata_112(void) __UNUSED;
 127:./Include/nrf52_erratas.h **** static bool nrf52_errata_113(void) __UNUSED;
 128:./Include/nrf52_erratas.h **** static bool nrf52_errata_115(void) __UNUSED;
 129:./Include/nrf52_erratas.h **** static bool nrf52_errata_116(void) __UNUSED;
 130:./Include/nrf52_erratas.h **** static bool nrf52_errata_117(void) __UNUSED;
 131:./Include/nrf52_erratas.h **** static bool nrf52_errata_118(void) __UNUSED;
 132:./Include/nrf52_erratas.h **** static bool nrf52_errata_119(void) __UNUSED;
 133:./Include/nrf52_erratas.h **** static bool nrf52_errata_120(void) __UNUSED;
 134:./Include/nrf52_erratas.h **** static bool nrf52_errata_121(void) __UNUSED;
 135:./Include/nrf52_erratas.h **** static bool nrf52_errata_122(void) __UNUSED;
 136:./Include/nrf52_erratas.h **** static bool nrf52_errata_127(void) __UNUSED;
 137:./Include/nrf52_erratas.h **** static bool nrf52_errata_128(void) __UNUSED;
 138:./Include/nrf52_erratas.h **** static bool nrf52_errata_131(void) __UNUSED;
 139:./Include/nrf52_erratas.h **** static bool nrf52_errata_132(void) __UNUSED;
 140:./Include/nrf52_erratas.h **** static bool nrf52_errata_133(void) __UNUSED;
 141:./Include/nrf52_erratas.h **** static bool nrf52_errata_134(void) __UNUSED;
 142:./Include/nrf52_erratas.h **** static bool nrf52_errata_135(void) __UNUSED;
 143:./Include/nrf52_erratas.h **** static bool nrf52_errata_136(void) __UNUSED;
 144:./Include/nrf52_erratas.h **** static bool nrf52_errata_138(void) __UNUSED;
 145:./Include/nrf52_erratas.h **** static bool nrf52_errata_140(void) __UNUSED;
 146:./Include/nrf52_erratas.h **** static bool nrf52_errata_141(void) __UNUSED;
 147:./Include/nrf52_erratas.h **** static bool nrf52_errata_142(void) __UNUSED;
 148:./Include/nrf52_erratas.h **** static bool nrf52_errata_143(void) __UNUSED;
 149:./Include/nrf52_erratas.h **** static bool nrf52_errata_144(void) __UNUSED;
 150:./Include/nrf52_erratas.h **** static bool nrf52_errata_145(void) __UNUSED;
 151:./Include/nrf52_erratas.h **** static bool nrf52_errata_146(void) __UNUSED;
 152:./Include/nrf52_erratas.h **** static bool nrf52_errata_147(void) __UNUSED;
 153:./Include/nrf52_erratas.h **** static bool nrf52_errata_149(void) __UNUSED;
 154:./Include/nrf52_erratas.h **** static bool nrf52_errata_150(void) __UNUSED;
 155:./Include/nrf52_erratas.h **** static bool nrf52_errata_151(void) __UNUSED;
 156:./Include/nrf52_erratas.h **** static bool nrf52_errata_153(void) __UNUSED;
 157:./Include/nrf52_erratas.h **** static bool nrf52_errata_154(void) __UNUSED;
 158:./Include/nrf52_erratas.h **** static bool nrf52_errata_155(void) __UNUSED;
 159:./Include/nrf52_erratas.h **** static bool nrf52_errata_156(void) __UNUSED;
 160:./Include/nrf52_erratas.h **** static bool nrf52_errata_158(void) __UNUSED;
 161:./Include/nrf52_erratas.h **** static bool nrf52_errata_160(void) __UNUSED;
 162:./Include/nrf52_erratas.h **** static bool nrf52_errata_162(void) __UNUSED;
 163:./Include/nrf52_erratas.h **** static bool nrf52_errata_163(void) __UNUSED;
 164:./Include/nrf52_erratas.h **** static bool nrf52_errata_164(void) __UNUSED;
 165:./Include/nrf52_erratas.h **** static bool nrf52_errata_166(void) __UNUSED;
 166:./Include/nrf52_erratas.h **** static bool nrf52_errata_170(void) __UNUSED;
 167:./Include/nrf52_erratas.h **** static bool nrf52_errata_171(void) __UNUSED;
 168:./Include/nrf52_erratas.h **** static bool nrf52_errata_172(void) __UNUSED;
 169:./Include/nrf52_erratas.h **** static bool nrf52_errata_173(void) __UNUSED;
 170:./Include/nrf52_erratas.h **** static bool nrf52_errata_174(void) __UNUSED;
 171:./Include/nrf52_erratas.h **** static bool nrf52_errata_176(void) __UNUSED;
 172:./Include/nrf52_erratas.h **** static bool nrf52_errata_178(void) __UNUSED;
 173:./Include/nrf52_erratas.h **** static bool nrf52_errata_179(void) __UNUSED;
 174:./Include/nrf52_erratas.h **** static bool nrf52_errata_180(void) __UNUSED;
 175:./Include/nrf52_erratas.h **** static bool nrf52_errata_181(void) __UNUSED;
 176:./Include/nrf52_erratas.h **** static bool nrf52_errata_182(void) __UNUSED;
 177:./Include/nrf52_erratas.h **** static bool nrf52_errata_183(void) __UNUSED;
 178:./Include/nrf52_erratas.h **** static bool nrf52_errata_184(void) __UNUSED;
 179:./Include/nrf52_erratas.h **** static bool nrf52_errata_186(void) __UNUSED;
 180:./Include/nrf52_erratas.h **** static bool nrf52_errata_187(void) __UNUSED;
 181:./Include/nrf52_erratas.h **** static bool nrf52_errata_189(void) __UNUSED;
 182:./Include/nrf52_erratas.h **** static bool nrf52_errata_190(void) __UNUSED;
 183:./Include/nrf52_erratas.h **** static bool nrf52_errata_191(void) __UNUSED;
 184:./Include/nrf52_erratas.h **** static bool nrf52_errata_192(void) __UNUSED;
 185:./Include/nrf52_erratas.h **** static bool nrf52_errata_193(void) __UNUSED;
 186:./Include/nrf52_erratas.h **** static bool nrf52_errata_194(void) __UNUSED;
 187:./Include/nrf52_erratas.h **** static bool nrf52_errata_195(void) __UNUSED;
 188:./Include/nrf52_erratas.h **** static bool nrf52_errata_196(void) __UNUSED;
 189:./Include/nrf52_erratas.h **** static bool nrf52_errata_197(void) __UNUSED;
 190:./Include/nrf52_erratas.h **** static bool nrf52_errata_198(void) __UNUSED;
 191:./Include/nrf52_erratas.h **** static bool nrf52_errata_199(void) __UNUSED;
 192:./Include/nrf52_erratas.h **** static bool nrf52_errata_200(void) __UNUSED;
 193:./Include/nrf52_erratas.h **** static bool nrf52_errata_201(void) __UNUSED;
 194:./Include/nrf52_erratas.h **** static bool nrf52_errata_202(void) __UNUSED;
 195:./Include/nrf52_erratas.h **** static bool nrf52_errata_204(void) __UNUSED;
 196:./Include/nrf52_erratas.h **** static bool nrf52_errata_208(void) __UNUSED;
 197:./Include/nrf52_erratas.h **** static bool nrf52_errata_209(void) __UNUSED;
 198:./Include/nrf52_erratas.h **** static bool nrf52_errata_210(void) __UNUSED;
 199:./Include/nrf52_erratas.h **** static bool nrf52_errata_211(void) __UNUSED;
 200:./Include/nrf52_erratas.h **** static bool nrf52_errata_212(void) __UNUSED;
 201:./Include/nrf52_erratas.h **** static bool nrf52_errata_213(void) __UNUSED;
 202:./Include/nrf52_erratas.h **** static bool nrf52_errata_214(void) __UNUSED;
 203:./Include/nrf52_erratas.h **** static bool nrf52_errata_215(void) __UNUSED;
 204:./Include/nrf52_erratas.h **** static bool nrf52_errata_216(void) __UNUSED;
 205:./Include/nrf52_erratas.h **** static bool nrf52_errata_217(void) __UNUSED;
 206:./Include/nrf52_erratas.h **** static bool nrf52_errata_218(void) __UNUSED;
 207:./Include/nrf52_erratas.h **** static bool nrf52_errata_219(void) __UNUSED;
 208:./Include/nrf52_erratas.h **** static bool nrf52_errata_220(void) __UNUSED;
 209:./Include/nrf52_erratas.h **** static bool nrf52_errata_223(void) __UNUSED;
 210:./Include/nrf52_erratas.h **** static bool nrf52_errata_225(void) __UNUSED;
 211:./Include/nrf52_erratas.h **** static bool nrf52_errata_228(void) __UNUSED;
 212:./Include/nrf52_erratas.h **** static bool nrf52_errata_230(void) __UNUSED;
 213:./Include/nrf52_erratas.h **** static bool nrf52_errata_231(void) __UNUSED;
 214:./Include/nrf52_erratas.h **** static bool nrf52_errata_232(void) __UNUSED;
 215:./Include/nrf52_erratas.h **** static bool nrf52_errata_233(void) __UNUSED;
 216:./Include/nrf52_erratas.h **** static bool nrf52_errata_236(void) __UNUSED;
 217:./Include/nrf52_erratas.h **** static bool nrf52_errata_237(void) __UNUSED;
 218:./Include/nrf52_erratas.h **** static bool nrf52_errata_241(void) __UNUSED;
 219:./Include/nrf52_erratas.h **** static bool nrf52_errata_242(void) __UNUSED;
 220:./Include/nrf52_erratas.h **** static bool nrf52_errata_243(void) __UNUSED;
 221:./Include/nrf52_erratas.h **** static bool nrf52_errata_244(void) __UNUSED;
 222:./Include/nrf52_erratas.h **** static bool nrf52_errata_245(void) __UNUSED;
 223:./Include/nrf52_erratas.h **** static bool nrf52_errata_246(void) __UNUSED;
 224:./Include/nrf52_erratas.h **** static bool nrf52_errata_248(void) __UNUSED;
 225:./Include/nrf52_erratas.h **** static bool nrf52_configuration_249(void) __UNUSED;
 226:./Include/nrf52_erratas.h **** static bool nrf52_errata_250(void) __UNUSED;
 227:./Include/nrf52_erratas.h **** static bool nrf52_errata_251(void) __UNUSED;
 228:./Include/nrf52_erratas.h **** static bool nrf52_errata_252(void) __UNUSED;
 229:./Include/nrf52_erratas.h **** static bool nrf52_configuration_254(void) __UNUSED;
 230:./Include/nrf52_erratas.h **** static bool nrf52_configuration_255(void) __UNUSED;
 231:./Include/nrf52_erratas.h **** static bool nrf52_configuration_256(void) __UNUSED;
 232:./Include/nrf52_erratas.h **** static bool nrf52_configuration_257(void) __UNUSED;
 233:./Include/nrf52_erratas.h **** static bool nrf52_errata_258(void) __UNUSED;
 234:./Include/nrf52_erratas.h **** static bool nrf52_errata_259(void) __UNUSED;
 235:./Include/nrf52_erratas.h **** static bool nrf52_errata_262(void) __UNUSED;
 236:./Include/nrf52_erratas.h **** static bool nrf52_errata_263(void) __UNUSED;
 237:./Include/nrf52_erratas.h **** static bool nrf52_errata_265(void) __UNUSED;
 238:./Include/nrf52_erratas.h **** static bool nrf52_errata_266(void) __UNUSED;
 239:./Include/nrf52_erratas.h **** static bool nrf52_errata_267(void) __UNUSED;
 240:./Include/nrf52_erratas.h **** static bool nrf52_errata_268(void) __UNUSED;
 241:./Include/nrf52_erratas.h **** static bool nrf52_errata_269(void) __UNUSED;
 242:./Include/nrf52_erratas.h **** static bool nrf52_errata_270(void) __UNUSED;
 243:./Include/nrf52_erratas.h **** static bool nrf52_errata_271(void) __UNUSED;
 244:./Include/nrf52_erratas.h **** static bool nrf52_errata_272(void) __UNUSED;
 245:./Include/nrf52_erratas.h **** static bool nrf52_errata_273(void) __UNUSED;
 246:./Include/nrf52_erratas.h **** 
 247:./Include/nrf52_erratas.h **** /* ========= Errata 1 ========= */
 248:./Include/nrf52_erratas.h **** #if    defined (NRF52832_XXAA) || defined (DEVELOP_IN_NRF52832) \
 249:./Include/nrf52_erratas.h ****     || defined (NRF52832_XXAB) || defined (DEVELOP_IN_NRF52832)
 250:./Include/nrf52_erratas.h ****     #define NRF52_ERRATA_1_PRESENT 1
 251:./Include/nrf52_erratas.h **** #else
 252:./Include/nrf52_erratas.h ****     #define NRF52_ERRATA_1_PRESENT 0
 253:./Include/nrf52_erratas.h **** #endif
 254:./Include/nrf52_erratas.h **** 
 255:./Include/nrf52_erratas.h **** #ifndef NRF52_ERRATA_1_ENABLE_WORKAROUND
 256:./Include/nrf52_erratas.h ****     #define NRF52_ERRATA_1_ENABLE_WORKAROUND NRF52_ERRATA_1_PRESENT
 257:./Include/nrf52_erratas.h **** #endif
 258:./Include/nrf52_erratas.h **** 
 259:./Include/nrf52_erratas.h **** static bool nrf52_errata_1(void)
 260:./Include/nrf52_erratas.h **** {
 261:./Include/nrf52_erratas.h ****     #ifndef NRF52_SERIES
 262:./Include/nrf52_erratas.h ****         return false;
 263:./Include/nrf52_erratas.h ****     #else
 264:./Include/nrf52_erratas.h ****         #if defined (NRF52832_XXAA) || defined (DEVELOP_IN_NRF52832)\
 265:./Include/nrf52_erratas.h ****          || defined (NRF52832_XXAB) || defined (DEVELOP_IN_NRF52832)
 266:./Include/nrf52_erratas.h ****             uint32_t var1 = ((*(uint32_t *)0xF0000FE0ul) & 0x000000FFul);
 267:./Include/nrf52_erratas.h ****             uint32_t var2 = ((*(uint32_t *)0xF0000FE8ul) & 0x000000F0ul) >> 4;
 268:./Include/nrf52_erratas.h ****         #endif
 269:./Include/nrf52_erratas.h ****         #if defined (NRF52832_XXAA) || defined (DEVELOP_IN_NRF52832)\
 270:./Include/nrf52_erratas.h ****          || defined (NRF52832_XXAB) || defined (DEVELOP_IN_NRF52832)
 271:./Include/nrf52_erratas.h ****             if (var1 == 0x06)
 272:./Include/nrf52_erratas.h ****             {
 273:./Include/nrf52_erratas.h ****                 switch(var2)
 274:./Include/nrf52_erratas.h ****                 {
 275:./Include/nrf52_erratas.h ****                     case 0x03ul:
 276:./Include/nrf52_erratas.h ****                         return true;
 277:./Include/nrf52_erratas.h ****                     case 0x04ul:
 278:./Include/nrf52_erratas.h ****                         return false;
 279:./Include/nrf52_erratas.h ****                     case 0x05ul:
 280:./Include/nrf52_erratas.h ****                         return false;
 281:./Include/nrf52_erratas.h ****                     case 0x06ul:
 282:./Include/nrf52_erratas.h ****                         return false;
 283:./Include/nrf52_erratas.h ****                     case 0x07ul:
 284:./Include/nrf52_erratas.h ****                         return false;
 285:./Include/nrf52_erratas.h ****                     default:
 286:./Include/nrf52_erratas.h ****                         return false;
 287:./Include/nrf52_erratas.h ****                 }
 288:./Include/nrf52_erratas.h ****             }
 289:./Include/nrf52_erratas.h ****         #endif
 290:./Include/nrf52_erratas.h ****         return false;
 291:./Include/nrf52_erratas.h ****     #endif
 292:./Include/nrf52_erratas.h **** }
 293:./Include/nrf52_erratas.h **** 
 294:./Include/nrf52_erratas.h **** /* ========= Errata 2 ========= */
 295:./Include/nrf52_erratas.h **** #if    defined (NRF52832_XXAA) || defined (DEVELOP_IN_NRF52832) \
 296:./Include/nrf52_erratas.h ****     || defined (NRF52832_XXAB) || defined (DEVELOP_IN_NRF52832)
 297:./Include/nrf52_erratas.h ****     #define NRF52_ERRATA_2_PRESENT 1
 298:./Include/nrf52_erratas.h **** #else
 299:./Include/nrf52_erratas.h ****     #define NRF52_ERRATA_2_PRESENT 0
 300:./Include/nrf52_erratas.h **** #endif
 301:./Include/nrf52_erratas.h **** 
 302:./Include/nrf52_erratas.h **** #ifndef NRF52_ERRATA_2_ENABLE_WORKAROUND
 303:./Include/nrf52_erratas.h ****     #define NRF52_ERRATA_2_ENABLE_WORKAROUND NRF52_ERRATA_2_PRESENT
 304:./Include/nrf52_erratas.h **** #endif
 305:./Include/nrf52_erratas.h **** 
 306:./Include/nrf52_erratas.h **** static bool nrf52_errata_2(void)
 307:./Include/nrf52_erratas.h **** {
 308:./Include/nrf52_erratas.h ****     #ifndef NRF52_SERIES
 309:./Include/nrf52_erratas.h ****         return false;
 310:./Include/nrf52_erratas.h ****     #else
 311:./Include/nrf52_erratas.h ****         #if defined (NRF52832_XXAA) || defined (DEVELOP_IN_NRF52832)\
 312:./Include/nrf52_erratas.h ****          || defined (NRF52832_XXAB) || defined (DEVELOP_IN_NRF52832)
 313:./Include/nrf52_erratas.h ****             uint32_t var1 = ((*(uint32_t *)0xF0000FE0ul) & 0x000000FFul);
 314:./Include/nrf52_erratas.h ****             uint32_t var2 = ((*(uint32_t *)0xF0000FE8ul) & 0x000000F0ul) >> 4;
 315:./Include/nrf52_erratas.h ****         #endif
 316:./Include/nrf52_erratas.h ****         #if defined (NRF52832_XXAA) || defined (DEVELOP_IN_NRF52832)\
 317:./Include/nrf52_erratas.h ****          || defined (NRF52832_XXAB) || defined (DEVELOP_IN_NRF52832)
 318:./Include/nrf52_erratas.h ****             if (var1 == 0x06)
 319:./Include/nrf52_erratas.h ****             {
 320:./Include/nrf52_erratas.h ****                 switch(var2)
 321:./Include/nrf52_erratas.h ****                 {
 322:./Include/nrf52_erratas.h ****                     case 0x03ul:
 323:./Include/nrf52_erratas.h ****                         return true;
 324:./Include/nrf52_erratas.h ****                     case 0x04ul:
 325:./Include/nrf52_erratas.h ****                         return false;
 326:./Include/nrf52_erratas.h ****                     case 0x05ul:
 327:./Include/nrf52_erratas.h ****                         return false;
 328:./Include/nrf52_erratas.h ****                     case 0x06ul:
 329:./Include/nrf52_erratas.h ****                         return false;
 330:./Include/nrf52_erratas.h ****                     case 0x07ul:
 331:./Include/nrf52_erratas.h ****                         return false;
 332:./Include/nrf52_erratas.h ****                     default:
 333:./Include/nrf52_erratas.h ****                         return false;
 334:./Include/nrf52_erratas.h ****                 }
 335:./Include/nrf52_erratas.h ****             }
 336:./Include/nrf52_erratas.h ****         #endif
 337:./Include/nrf52_erratas.h ****         return false;
 338:./Include/nrf52_erratas.h ****     #endif
 339:./Include/nrf52_erratas.h **** }
 340:./Include/nrf52_erratas.h **** 
 341:./Include/nrf52_erratas.h **** /* ========= Errata 3 ========= */
 342:./Include/nrf52_erratas.h **** #if    defined (NRF52832_XXAA) || defined (DEVELOP_IN_NRF52832) \
 343:./Include/nrf52_erratas.h ****     || defined (NRF52832_XXAB) || defined (DEVELOP_IN_NRF52832)
 344:./Include/nrf52_erratas.h ****     #define NRF52_ERRATA_3_PRESENT 1
 345:./Include/nrf52_erratas.h **** #else
 346:./Include/nrf52_erratas.h ****     #define NRF52_ERRATA_3_PRESENT 0
 347:./Include/nrf52_erratas.h **** #endif
 348:./Include/nrf52_erratas.h **** 
 349:./Include/nrf52_erratas.h **** #ifndef NRF52_ERRATA_3_ENABLE_WORKAROUND
 350:./Include/nrf52_erratas.h ****     #define NRF52_ERRATA_3_ENABLE_WORKAROUND NRF52_ERRATA_3_PRESENT
 351:./Include/nrf52_erratas.h **** #endif
 352:./Include/nrf52_erratas.h **** 
 353:./Include/nrf52_erratas.h **** static bool nrf52_errata_3(void)
 354:./Include/nrf52_erratas.h **** {
 355:./Include/nrf52_erratas.h ****     #ifndef NRF52_SERIES
 356:./Include/nrf52_erratas.h ****         return false;
 357:./Include/nrf52_erratas.h ****     #else
 358:./Include/nrf52_erratas.h ****         #if defined (NRF52832_XXAA) || defined (DEVELOP_IN_NRF52832)\
 359:./Include/nrf52_erratas.h ****          || defined (NRF52832_XXAB) || defined (DEVELOP_IN_NRF52832)
 360:./Include/nrf52_erratas.h ****             uint32_t var1 = ((*(uint32_t *)0xF0000FE0ul) & 0x000000FFul);
 361:./Include/nrf52_erratas.h ****             uint32_t var2 = ((*(uint32_t *)0xF0000FE8ul) & 0x000000F0ul) >> 4;
 362:./Include/nrf52_erratas.h ****         #endif
 363:./Include/nrf52_erratas.h ****         #if defined (NRF52832_XXAA) || defined (DEVELOP_IN_NRF52832)\
 364:./Include/nrf52_erratas.h ****          || defined (NRF52832_XXAB) || defined (DEVELOP_IN_NRF52832)
 365:./Include/nrf52_erratas.h ****             if (var1 == 0x06)
 366:./Include/nrf52_erratas.h ****             {
 367:./Include/nrf52_erratas.h ****                 switch(var2)
 368:./Include/nrf52_erratas.h ****                 {
 369:./Include/nrf52_erratas.h ****                     case 0x03ul:
 370:./Include/nrf52_erratas.h ****                         return true;
 371:./Include/nrf52_erratas.h ****                     case 0x04ul:
 372:./Include/nrf52_erratas.h ****                         return false;
 373:./Include/nrf52_erratas.h ****                     case 0x05ul:
 374:./Include/nrf52_erratas.h ****                         return false;
 375:./Include/nrf52_erratas.h ****                     case 0x06ul:
 376:./Include/nrf52_erratas.h ****                         return false;
 377:./Include/nrf52_erratas.h ****                     case 0x07ul:
 378:./Include/nrf52_erratas.h ****                         return false;
 379:./Include/nrf52_erratas.h ****                     default:
 380:./Include/nrf52_erratas.h ****                         return false;
 381:./Include/nrf52_erratas.h ****                 }
 382:./Include/nrf52_erratas.h ****             }
 383:./Include/nrf52_erratas.h ****         #endif
 384:./Include/nrf52_erratas.h ****         return false;
 385:./Include/nrf52_erratas.h ****     #endif
 386:./Include/nrf52_erratas.h **** }
 387:./Include/nrf52_erratas.h **** 
 388:./Include/nrf52_erratas.h **** /* ========= Errata 4 ========= */
 389:./Include/nrf52_erratas.h **** #if    defined (NRF52832_XXAA) || defined (DEVELOP_IN_NRF52832) \
 390:./Include/nrf52_erratas.h ****     || defined (NRF52832_XXAB) || defined (DEVELOP_IN_NRF52832)
 391:./Include/nrf52_erratas.h ****     #define NRF52_ERRATA_4_PRESENT 1
 392:./Include/nrf52_erratas.h **** #else
 393:./Include/nrf52_erratas.h ****     #define NRF52_ERRATA_4_PRESENT 0
 394:./Include/nrf52_erratas.h **** #endif
 395:./Include/nrf52_erratas.h **** 
 396:./Include/nrf52_erratas.h **** #ifndef NRF52_ERRATA_4_ENABLE_WORKAROUND
 397:./Include/nrf52_erratas.h ****     #define NRF52_ERRATA_4_ENABLE_WORKAROUND NRF52_ERRATA_4_PRESENT
 398:./Include/nrf52_erratas.h **** #endif
 399:./Include/nrf52_erratas.h **** 
 400:./Include/nrf52_erratas.h **** static bool nrf52_errata_4(void)
 401:./Include/nrf52_erratas.h **** {
 402:./Include/nrf52_erratas.h ****     #ifndef NRF52_SERIES
 403:./Include/nrf52_erratas.h ****         return false;
 404:./Include/nrf52_erratas.h ****     #else
 405:./Include/nrf52_erratas.h ****         #if defined (NRF52832_XXAA) || defined (DEVELOP_IN_NRF52832)\
 406:./Include/nrf52_erratas.h ****          || defined (NRF52832_XXAB) || defined (DEVELOP_IN_NRF52832)
 407:./Include/nrf52_erratas.h ****             uint32_t var1 = ((*(uint32_t *)0xF0000FE0ul) & 0x000000FFul);
 408:./Include/nrf52_erratas.h ****             uint32_t var2 = ((*(uint32_t *)0xF0000FE8ul) & 0x000000F0ul) >> 4;
 409:./Include/nrf52_erratas.h ****         #endif
 410:./Include/nrf52_erratas.h ****         #if defined (NRF52832_XXAA) || defined (DEVELOP_IN_NRF52832)\
 411:./Include/nrf52_erratas.h ****          || defined (NRF52832_XXAB) || defined (DEVELOP_IN_NRF52832)
 412:./Include/nrf52_erratas.h ****             if (var1 == 0x06)
 413:./Include/nrf52_erratas.h ****             {
 414:./Include/nrf52_erratas.h ****                 switch(var2)
 415:./Include/nrf52_erratas.h ****                 {
 416:./Include/nrf52_erratas.h ****                     case 0x03ul:
 417:./Include/nrf52_erratas.h ****                         return true;
 418:./Include/nrf52_erratas.h ****                     case 0x04ul:
 419:./Include/nrf52_erratas.h ****                         return false;
 420:./Include/nrf52_erratas.h ****                     case 0x05ul:
 421:./Include/nrf52_erratas.h ****                         return false;
 422:./Include/nrf52_erratas.h ****                     case 0x06ul:
 423:./Include/nrf52_erratas.h ****                         return false;
 424:./Include/nrf52_erratas.h ****                     case 0x07ul:
 425:./Include/nrf52_erratas.h ****                         return false;
 426:./Include/nrf52_erratas.h ****                     default:
 427:./Include/nrf52_erratas.h ****                         return false;
 428:./Include/nrf52_erratas.h ****                 }
 429:./Include/nrf52_erratas.h ****             }
 430:./Include/nrf52_erratas.h ****         #endif
 431:./Include/nrf52_erratas.h ****         return false;
 432:./Include/nrf52_erratas.h ****     #endif
 433:./Include/nrf52_erratas.h **** }
 434:./Include/nrf52_erratas.h **** 
 435:./Include/nrf52_erratas.h **** /* ========= Errata 7 ========= */
 436:./Include/nrf52_erratas.h **** #if    defined (NRF52832_XXAA) || defined (DEVELOP_IN_NRF52832) \
 437:./Include/nrf52_erratas.h ****     || defined (NRF52832_XXAB) || defined (DEVELOP_IN_NRF52832)
 438:./Include/nrf52_erratas.h ****     #define NRF52_ERRATA_7_PRESENT 1
 439:./Include/nrf52_erratas.h **** #else
 440:./Include/nrf52_erratas.h ****     #define NRF52_ERRATA_7_PRESENT 0
 441:./Include/nrf52_erratas.h **** #endif
 442:./Include/nrf52_erratas.h **** 
 443:./Include/nrf52_erratas.h **** #ifndef NRF52_ERRATA_7_ENABLE_WORKAROUND
 444:./Include/nrf52_erratas.h ****     #define NRF52_ERRATA_7_ENABLE_WORKAROUND NRF52_ERRATA_7_PRESENT
 445:./Include/nrf52_erratas.h **** #endif
 446:./Include/nrf52_erratas.h **** 
 447:./Include/nrf52_erratas.h **** static bool nrf52_errata_7(void)
 448:./Include/nrf52_erratas.h **** {
 449:./Include/nrf52_erratas.h ****     #ifndef NRF52_SERIES
 450:./Include/nrf52_erratas.h ****         return false;
 451:./Include/nrf52_erratas.h ****     #else
 452:./Include/nrf52_erratas.h ****         #if defined (NRF52832_XXAA) || defined (DEVELOP_IN_NRF52832)\
 453:./Include/nrf52_erratas.h ****          || defined (NRF52832_XXAB) || defined (DEVELOP_IN_NRF52832)
 454:./Include/nrf52_erratas.h ****             uint32_t var1 = ((*(uint32_t *)0xF0000FE0ul) & 0x000000FFul);
 455:./Include/nrf52_erratas.h ****             uint32_t var2 = ((*(uint32_t *)0xF0000FE8ul) & 0x000000F0ul) >> 4;
 456:./Include/nrf52_erratas.h ****         #endif
 457:./Include/nrf52_erratas.h ****         #if defined (NRF52832_XXAA) || defined (DEVELOP_IN_NRF52832)\
 458:./Include/nrf52_erratas.h ****          || defined (NRF52832_XXAB) || defined (DEVELOP_IN_NRF52832)
 459:./Include/nrf52_erratas.h ****             if (var1 == 0x06)
 460:./Include/nrf52_erratas.h ****             {
 461:./Include/nrf52_erratas.h ****                 switch(var2)
 462:./Include/nrf52_erratas.h ****                 {
 463:./Include/nrf52_erratas.h ****                     case 0x03ul:
 464:./Include/nrf52_erratas.h ****                         return true;
 465:./Include/nrf52_erratas.h ****                     case 0x04ul:
 466:./Include/nrf52_erratas.h ****                         return false;
 467:./Include/nrf52_erratas.h ****                     case 0x05ul:
 468:./Include/nrf52_erratas.h ****                         return false;
 469:./Include/nrf52_erratas.h ****                     case 0x06ul:
 470:./Include/nrf52_erratas.h ****                         return false;
 471:./Include/nrf52_erratas.h ****                     case 0x07ul:
 472:./Include/nrf52_erratas.h ****                         return false;
 473:./Include/nrf52_erratas.h ****                     default:
 474:./Include/nrf52_erratas.h ****                         return false;
 475:./Include/nrf52_erratas.h ****                 }
 476:./Include/nrf52_erratas.h ****             }
 477:./Include/nrf52_erratas.h ****         #endif
 478:./Include/nrf52_erratas.h ****         return false;
 479:./Include/nrf52_erratas.h ****     #endif
 480:./Include/nrf52_erratas.h **** }
 481:./Include/nrf52_erratas.h **** 
 482:./Include/nrf52_erratas.h **** /* ========= Errata 8 ========= */
 483:./Include/nrf52_erratas.h **** #if    defined (NRF52832_XXAA) || defined (DEVELOP_IN_NRF52832) \
 484:./Include/nrf52_erratas.h ****     || defined (NRF52832_XXAB) || defined (DEVELOP_IN_NRF52832)
 485:./Include/nrf52_erratas.h ****     #define NRF52_ERRATA_8_PRESENT 1
 486:./Include/nrf52_erratas.h **** #else
 487:./Include/nrf52_erratas.h ****     #define NRF52_ERRATA_8_PRESENT 0
 488:./Include/nrf52_erratas.h **** #endif
 489:./Include/nrf52_erratas.h **** 
 490:./Include/nrf52_erratas.h **** #ifndef NRF52_ERRATA_8_ENABLE_WORKAROUND
 491:./Include/nrf52_erratas.h ****     #define NRF52_ERRATA_8_ENABLE_WORKAROUND NRF52_ERRATA_8_PRESENT
 492:./Include/nrf52_erratas.h **** #endif
 493:./Include/nrf52_erratas.h **** 
 494:./Include/nrf52_erratas.h **** static bool nrf52_errata_8(void)
 495:./Include/nrf52_erratas.h **** {
 496:./Include/nrf52_erratas.h ****     #ifndef NRF52_SERIES
 497:./Include/nrf52_erratas.h ****         return false;
 498:./Include/nrf52_erratas.h ****     #else
 499:./Include/nrf52_erratas.h ****         #if defined (NRF52832_XXAA) || defined (DEVELOP_IN_NRF52832)\
 500:./Include/nrf52_erratas.h ****          || defined (NRF52832_XXAB) || defined (DEVELOP_IN_NRF52832)
 501:./Include/nrf52_erratas.h ****             uint32_t var1 = ((*(uint32_t *)0xF0000FE0ul) & 0x000000FFul);
 502:./Include/nrf52_erratas.h ****             uint32_t var2 = ((*(uint32_t *)0xF0000FE8ul) & 0x000000F0ul) >> 4;
 503:./Include/nrf52_erratas.h ****         #endif
 504:./Include/nrf52_erratas.h ****         #if defined (NRF52832_XXAA) || defined (DEVELOP_IN_NRF52832)\
 505:./Include/nrf52_erratas.h ****          || defined (NRF52832_XXAB) || defined (DEVELOP_IN_NRF52832)
 506:./Include/nrf52_erratas.h ****             if (var1 == 0x06)
 507:./Include/nrf52_erratas.h ****             {
 508:./Include/nrf52_erratas.h ****                 switch(var2)
 509:./Include/nrf52_erratas.h ****                 {
 510:./Include/nrf52_erratas.h ****                     case 0x03ul:
 511:./Include/nrf52_erratas.h ****                         return true;
 512:./Include/nrf52_erratas.h ****                     case 0x04ul:
 513:./Include/nrf52_erratas.h ****                         return false;
 514:./Include/nrf52_erratas.h ****                     case 0x05ul:
 515:./Include/nrf52_erratas.h ****                         return false;
 516:./Include/nrf52_erratas.h ****                     case 0x06ul:
 517:./Include/nrf52_erratas.h ****                         return false;
 518:./Include/nrf52_erratas.h ****                     case 0x07ul:
 519:./Include/nrf52_erratas.h ****                         return false;
 520:./Include/nrf52_erratas.h ****                     default:
 521:./Include/nrf52_erratas.h ****                         return false;
 522:./Include/nrf52_erratas.h ****                 }
 523:./Include/nrf52_erratas.h ****             }
 524:./Include/nrf52_erratas.h ****         #endif
 525:./Include/nrf52_erratas.h ****         return false;
 526:./Include/nrf52_erratas.h ****     #endif
 527:./Include/nrf52_erratas.h **** }
 528:./Include/nrf52_erratas.h **** 
 529:./Include/nrf52_erratas.h **** /* ========= Errata 9 ========= */
 530:./Include/nrf52_erratas.h **** #if    defined (NRF52832_XXAA) || defined (DEVELOP_IN_NRF52832) \
 531:./Include/nrf52_erratas.h ****     || defined (NRF52832_XXAB) || defined (DEVELOP_IN_NRF52832)
 532:./Include/nrf52_erratas.h ****     #define NRF52_ERRATA_9_PRESENT 1
 533:./Include/nrf52_erratas.h **** #else
 534:./Include/nrf52_erratas.h ****     #define NRF52_ERRATA_9_PRESENT 0
 535:./Include/nrf52_erratas.h **** #endif
 536:./Include/nrf52_erratas.h **** 
 537:./Include/nrf52_erratas.h **** #ifndef NRF52_ERRATA_9_ENABLE_WORKAROUND
 538:./Include/nrf52_erratas.h ****     #define NRF52_ERRATA_9_ENABLE_WORKAROUND NRF52_ERRATA_9_PRESENT
 539:./Include/nrf52_erratas.h **** #endif
 540:./Include/nrf52_erratas.h **** 
 541:./Include/nrf52_erratas.h **** static bool nrf52_errata_9(void)
 542:./Include/nrf52_erratas.h **** {
 543:./Include/nrf52_erratas.h ****     #ifndef NRF52_SERIES
 544:./Include/nrf52_erratas.h ****         return false;
 545:./Include/nrf52_erratas.h ****     #else
 546:./Include/nrf52_erratas.h ****         #if defined (NRF52832_XXAA) || defined (DEVELOP_IN_NRF52832)\
 547:./Include/nrf52_erratas.h ****          || defined (NRF52832_XXAB) || defined (DEVELOP_IN_NRF52832)
 548:./Include/nrf52_erratas.h ****             uint32_t var1 = ((*(uint32_t *)0xF0000FE0ul) & 0x000000FFul);
 549:./Include/nrf52_erratas.h ****             uint32_t var2 = ((*(uint32_t *)0xF0000FE8ul) & 0x000000F0ul) >> 4;
 550:./Include/nrf52_erratas.h ****         #endif
 551:./Include/nrf52_erratas.h ****         #if defined (NRF52832_XXAA) || defined (DEVELOP_IN_NRF52832)\
 552:./Include/nrf52_erratas.h ****          || defined (NRF52832_XXAB) || defined (DEVELOP_IN_NRF52832)
 553:./Include/nrf52_erratas.h ****             if (var1 == 0x06)
 554:./Include/nrf52_erratas.h ****             {
 555:./Include/nrf52_erratas.h ****                 switch(var2)
 556:./Include/nrf52_erratas.h ****                 {
 557:./Include/nrf52_erratas.h ****                     case 0x03ul:
 558:./Include/nrf52_erratas.h ****                         return true;
 559:./Include/nrf52_erratas.h ****                     case 0x04ul:
 560:./Include/nrf52_erratas.h ****                         return false;
 561:./Include/nrf52_erratas.h ****                     case 0x05ul:
 562:./Include/nrf52_erratas.h ****                         return false;
 563:./Include/nrf52_erratas.h ****                     case 0x06ul:
 564:./Include/nrf52_erratas.h ****                         return false;
 565:./Include/nrf52_erratas.h ****                     case 0x07ul:
 566:./Include/nrf52_erratas.h ****                         return false;
 567:./Include/nrf52_erratas.h ****                     default:
 568:./Include/nrf52_erratas.h ****                         return false;
 569:./Include/nrf52_erratas.h ****                 }
 570:./Include/nrf52_erratas.h ****             }
 571:./Include/nrf52_erratas.h ****         #endif
 572:./Include/nrf52_erratas.h ****         return false;
 573:./Include/nrf52_erratas.h ****     #endif
 574:./Include/nrf52_erratas.h **** }
 575:./Include/nrf52_erratas.h **** 
 576:./Include/nrf52_erratas.h **** /* ========= Errata 10 ========= */
 577:./Include/nrf52_erratas.h **** #if    defined (NRF52832_XXAA) || defined (DEVELOP_IN_NRF52832) \
 578:./Include/nrf52_erratas.h ****     || defined (NRF52832_XXAB) || defined (DEVELOP_IN_NRF52832)
 579:./Include/nrf52_erratas.h ****     #define NRF52_ERRATA_10_PRESENT 1
 580:./Include/nrf52_erratas.h **** #else
 581:./Include/nrf52_erratas.h ****     #define NRF52_ERRATA_10_PRESENT 0
 582:./Include/nrf52_erratas.h **** #endif
 583:./Include/nrf52_erratas.h **** 
 584:./Include/nrf52_erratas.h **** #ifndef NRF52_ERRATA_10_ENABLE_WORKAROUND
 585:./Include/nrf52_erratas.h ****     #define NRF52_ERRATA_10_ENABLE_WORKAROUND NRF52_ERRATA_10_PRESENT
 586:./Include/nrf52_erratas.h **** #endif
 587:./Include/nrf52_erratas.h **** 
 588:./Include/nrf52_erratas.h **** static bool nrf52_errata_10(void)
 589:./Include/nrf52_erratas.h **** {
 590:./Include/nrf52_erratas.h ****     #ifndef NRF52_SERIES
 591:./Include/nrf52_erratas.h ****         return false;
 592:./Include/nrf52_erratas.h ****     #else
 593:./Include/nrf52_erratas.h ****         #if defined (NRF52832_XXAA) || defined (DEVELOP_IN_NRF52832)\
 594:./Include/nrf52_erratas.h ****          || defined (NRF52832_XXAB) || defined (DEVELOP_IN_NRF52832)
 595:./Include/nrf52_erratas.h ****             uint32_t var1 = ((*(uint32_t *)0xF0000FE0ul) & 0x000000FFul);
 596:./Include/nrf52_erratas.h ****             uint32_t var2 = ((*(uint32_t *)0xF0000FE8ul) & 0x000000F0ul) >> 4;
 597:./Include/nrf52_erratas.h ****         #endif
 598:./Include/nrf52_erratas.h ****         #if defined (NRF52832_XXAA) || defined (DEVELOP_IN_NRF52832)\
 599:./Include/nrf52_erratas.h ****          || defined (NRF52832_XXAB) || defined (DEVELOP_IN_NRF52832)
 600:./Include/nrf52_erratas.h ****             if (var1 == 0x06)
 601:./Include/nrf52_erratas.h ****             {
 602:./Include/nrf52_erratas.h ****                 switch(var2)
 603:./Include/nrf52_erratas.h ****                 {
 604:./Include/nrf52_erratas.h ****                     case 0x03ul:
 605:./Include/nrf52_erratas.h ****                         return true;
 606:./Include/nrf52_erratas.h ****                     case 0x04ul:
 607:./Include/nrf52_erratas.h ****                         return false;
 608:./Include/nrf52_erratas.h ****                     case 0x05ul:
 609:./Include/nrf52_erratas.h ****                         return false;
 610:./Include/nrf52_erratas.h ****                     case 0x06ul:
 611:./Include/nrf52_erratas.h ****                         return false;
 612:./Include/nrf52_erratas.h ****                     case 0x07ul:
 613:./Include/nrf52_erratas.h ****                         return false;
 614:./Include/nrf52_erratas.h ****                     default:
 615:./Include/nrf52_erratas.h ****                         return false;
 616:./Include/nrf52_erratas.h ****                 }
 617:./Include/nrf52_erratas.h ****             }
 618:./Include/nrf52_erratas.h ****         #endif
 619:./Include/nrf52_erratas.h ****         return false;
 620:./Include/nrf52_erratas.h ****     #endif
 621:./Include/nrf52_erratas.h **** }
 622:./Include/nrf52_erratas.h **** 
 623:./Include/nrf52_erratas.h **** /* ========= Errata 11 ========= */
 624:./Include/nrf52_erratas.h **** #if    defined (NRF52832_XXAA) || defined (DEVELOP_IN_NRF52832) \
 625:./Include/nrf52_erratas.h ****     || defined (NRF52832_XXAB) || defined (DEVELOP_IN_NRF52832)
 626:./Include/nrf52_erratas.h ****     #define NRF52_ERRATA_11_PRESENT 1
 627:./Include/nrf52_erratas.h **** #else
 628:./Include/nrf52_erratas.h ****     #define NRF52_ERRATA_11_PRESENT 0
 629:./Include/nrf52_erratas.h **** #endif
 630:./Include/nrf52_erratas.h **** 
 631:./Include/nrf52_erratas.h **** #ifndef NRF52_ERRATA_11_ENABLE_WORKAROUND
 632:./Include/nrf52_erratas.h ****     #define NRF52_ERRATA_11_ENABLE_WORKAROUND NRF52_ERRATA_11_PRESENT
 633:./Include/nrf52_erratas.h **** #endif
 634:./Include/nrf52_erratas.h **** 
 635:./Include/nrf52_erratas.h **** static bool nrf52_errata_11(void)
 636:./Include/nrf52_erratas.h **** {
 637:./Include/nrf52_erratas.h ****     #ifndef NRF52_SERIES
 638:./Include/nrf52_erratas.h ****         return false;
 639:./Include/nrf52_erratas.h ****     #else
 640:./Include/nrf52_erratas.h ****         #if defined (NRF52832_XXAA) || defined (DEVELOP_IN_NRF52832)\
 641:./Include/nrf52_erratas.h ****          || defined (NRF52832_XXAB) || defined (DEVELOP_IN_NRF52832)
 642:./Include/nrf52_erratas.h ****             uint32_t var1 = ((*(uint32_t *)0xF0000FE0ul) & 0x000000FFul);
 643:./Include/nrf52_erratas.h ****             uint32_t var2 = ((*(uint32_t *)0xF0000FE8ul) & 0x000000F0ul) >> 4;
 644:./Include/nrf52_erratas.h ****         #endif
 645:./Include/nrf52_erratas.h ****         #if defined (NRF52832_XXAA) || defined (DEVELOP_IN_NRF52832)\
 646:./Include/nrf52_erratas.h ****          || defined (NRF52832_XXAB) || defined (DEVELOP_IN_NRF52832)
 647:./Include/nrf52_erratas.h ****             if (var1 == 0x06)
 648:./Include/nrf52_erratas.h ****             {
 649:./Include/nrf52_erratas.h ****                 switch(var2)
 650:./Include/nrf52_erratas.h ****                 {
 651:./Include/nrf52_erratas.h ****                     case 0x03ul:
 652:./Include/nrf52_erratas.h ****                         return true;
 653:./Include/nrf52_erratas.h ****                     case 0x04ul:
 654:./Include/nrf52_erratas.h ****                         return false;
 655:./Include/nrf52_erratas.h ****                     case 0x05ul:
 656:./Include/nrf52_erratas.h ****                         return false;
 657:./Include/nrf52_erratas.h ****                     case 0x06ul:
 658:./Include/nrf52_erratas.h ****                         return false;
 659:./Include/nrf52_erratas.h ****                     case 0x07ul:
 660:./Include/nrf52_erratas.h ****                         return false;
 661:./Include/nrf52_erratas.h ****                     default:
 662:./Include/nrf52_erratas.h ****                         return false;
 663:./Include/nrf52_erratas.h ****                 }
 664:./Include/nrf52_erratas.h ****             }
 665:./Include/nrf52_erratas.h ****         #endif
 666:./Include/nrf52_erratas.h ****         return false;
 667:./Include/nrf52_erratas.h ****     #endif
 668:./Include/nrf52_erratas.h **** }
 669:./Include/nrf52_erratas.h **** 
 670:./Include/nrf52_erratas.h **** /* ========= Errata 12 ========= */
 671:./Include/nrf52_erratas.h **** #if    defined (NRF52832_XXAA) || defined (DEVELOP_IN_NRF52832) \
 672:./Include/nrf52_erratas.h ****     || defined (NRF52832_XXAB) || defined (DEVELOP_IN_NRF52832)
 673:./Include/nrf52_erratas.h ****     #define NRF52_ERRATA_12_PRESENT 1
 674:./Include/nrf52_erratas.h **** #else
 675:./Include/nrf52_erratas.h ****     #define NRF52_ERRATA_12_PRESENT 0
 676:./Include/nrf52_erratas.h **** #endif
 677:./Include/nrf52_erratas.h **** 
 678:./Include/nrf52_erratas.h **** #ifndef NRF52_ERRATA_12_ENABLE_WORKAROUND
 679:./Include/nrf52_erratas.h ****     #define NRF52_ERRATA_12_ENABLE_WORKAROUND NRF52_ERRATA_12_PRESENT
 680:./Include/nrf52_erratas.h **** #endif
 681:./Include/nrf52_erratas.h **** 
 682:./Include/nrf52_erratas.h **** static bool nrf52_errata_12(void)
 683:./Include/nrf52_erratas.h **** {
 684:./Include/nrf52_erratas.h ****     #ifndef NRF52_SERIES
 685:./Include/nrf52_erratas.h ****         return false;
 686:./Include/nrf52_erratas.h ****     #else
 687:./Include/nrf52_erratas.h ****         #if defined (NRF52832_XXAA) || defined (DEVELOP_IN_NRF52832)\
 688:./Include/nrf52_erratas.h ****          || defined (NRF52832_XXAB) || defined (DEVELOP_IN_NRF52832)
 689:./Include/nrf52_erratas.h ****             uint32_t var1;
 690:./Include/nrf52_erratas.h ****             uint32_t var2;
 691:./Include/nrf52_erratas.h **** 
 692:./Include/nrf52_erratas.h ****             if (*(uint32_t *)0x10000130ul == 0xFFFFFFFF)
 693:./Include/nrf52_erratas.h ****             {
 694:./Include/nrf52_erratas.h ****                 var1 = ((*(uint32_t *)0xF0000FE0ul) & 0x000000FFul);
 695:./Include/nrf52_erratas.h ****                 var2 = ((*(uint32_t *)0xF0000FE8ul) & 0x000000F0ul) >> 4;
 696:./Include/nrf52_erratas.h ****             }
 697:./Include/nrf52_erratas.h ****             else
 698:./Include/nrf52_erratas.h ****             {
 699:./Include/nrf52_erratas.h ****                 var1 = *(uint32_t *)0x10000130ul;
 700:./Include/nrf52_erratas.h ****                 var2 = *(uint32_t *)0x10000134ul;
 701:./Include/nrf52_erratas.h ****             }
 702:./Include/nrf52_erratas.h ****         #endif
 703:./Include/nrf52_erratas.h ****         #if defined (NRF52832_XXAA) || defined (DEVELOP_IN_NRF52832)\
 704:./Include/nrf52_erratas.h ****          || defined (NRF52832_XXAB) || defined (DEVELOP_IN_NRF52832)
 705:./Include/nrf52_erratas.h ****             if (var1 == 0x06)
 706:./Include/nrf52_erratas.h ****             {
 707:./Include/nrf52_erratas.h ****                 switch(var2)
 708:./Include/nrf52_erratas.h ****                 {
 709:./Include/nrf52_erratas.h ****                     case 0x03ul:
 710:./Include/nrf52_erratas.h ****                         return true;
 711:./Include/nrf52_erratas.h ****                     case 0x04ul:
 712:./Include/nrf52_erratas.h ****                         return true;
 713:./Include/nrf52_erratas.h ****                     case 0x05ul:
 714:./Include/nrf52_erratas.h ****                         return true;
 715:./Include/nrf52_erratas.h ****                     case 0x06ul:
 716:./Include/nrf52_erratas.h ****                         return true;
 717:./Include/nrf52_erratas.h ****                     case 0x07ul:
 718:./Include/nrf52_erratas.h ****                         return true;
 719:./Include/nrf52_erratas.h ****                     default:
 720:./Include/nrf52_erratas.h ****                         return true;
 721:./Include/nrf52_erratas.h ****                 }
 722:./Include/nrf52_erratas.h ****             }
 723:./Include/nrf52_erratas.h ****         #endif
 724:./Include/nrf52_erratas.h ****         return false;
 725:./Include/nrf52_erratas.h ****     #endif
 726:./Include/nrf52_erratas.h **** }
 727:./Include/nrf52_erratas.h **** 
 728:./Include/nrf52_erratas.h **** /* ========= Errata 15 ========= */
 729:./Include/nrf52_erratas.h **** #if    defined (NRF52805_XXAA) || defined (DEVELOP_IN_NRF52805) \
 730:./Include/nrf52_erratas.h ****     || defined (NRF52810_XXAA) || defined (DEVELOP_IN_NRF52810) \
 731:./Include/nrf52_erratas.h ****     || defined (NRF52811_XXAA) || defined (DEVELOP_IN_NRF52811) \
 732:./Include/nrf52_erratas.h ****     || defined (NRF52832_XXAA) || defined (DEVELOP_IN_NRF52832) \
 733:./Include/nrf52_erratas.h ****     || defined (NRF52832_XXAB) || defined (DEVELOP_IN_NRF52832) \
 734:./Include/nrf52_erratas.h ****     || defined (NRF52840_XXAA) || defined (DEVELOP_IN_NRF52840)
 735:./Include/nrf52_erratas.h ****     #define NRF52_ERRATA_15_PRESENT 1
 736:./Include/nrf52_erratas.h **** #else
 737:./Include/nrf52_erratas.h ****     #define NRF52_ERRATA_15_PRESENT 0
 738:./Include/nrf52_erratas.h **** #endif
 739:./Include/nrf52_erratas.h **** 
 740:./Include/nrf52_erratas.h **** #ifndef NRF52_ERRATA_15_ENABLE_WORKAROUND
 741:./Include/nrf52_erratas.h ****     #define NRF52_ERRATA_15_ENABLE_WORKAROUND NRF52_ERRATA_15_PRESENT
 742:./Include/nrf52_erratas.h **** #endif
 743:./Include/nrf52_erratas.h **** 
 744:./Include/nrf52_erratas.h **** static bool nrf52_errata_15(void)
 745:./Include/nrf52_erratas.h **** {
 746:./Include/nrf52_erratas.h ****     #ifndef NRF52_SERIES
 747:./Include/nrf52_erratas.h ****         return false;
 748:./Include/nrf52_erratas.h ****     #else
 749:./Include/nrf52_erratas.h ****         #if defined (NRF52832_XXAA) || defined (DEVELOP_IN_NRF52832)\
 750:./Include/nrf52_erratas.h ****          || defined (NRF52832_XXAB) || defined (DEVELOP_IN_NRF52832)
 751:./Include/nrf52_erratas.h ****             uint32_t var1;
 752:./Include/nrf52_erratas.h ****             uint32_t var2;
 753:./Include/nrf52_erratas.h **** 
 754:./Include/nrf52_erratas.h ****             if (*(uint32_t *)0x10000130ul == 0xFFFFFFFF)
 755:./Include/nrf52_erratas.h ****             {
 756:./Include/nrf52_erratas.h ****                 var1 = ((*(uint32_t *)0xF0000FE0ul) & 0x000000FFul);
 757:./Include/nrf52_erratas.h ****                 var2 = ((*(uint32_t *)0xF0000FE8ul) & 0x000000F0ul) >> 4;
 758:./Include/nrf52_erratas.h ****             }
 759:./Include/nrf52_erratas.h ****             else
 760:./Include/nrf52_erratas.h ****             {
 761:./Include/nrf52_erratas.h ****                 var1 = *(uint32_t *)0x10000130ul;
 762:./Include/nrf52_erratas.h ****                 var2 = *(uint32_t *)0x10000134ul;
 763:./Include/nrf52_erratas.h ****             }
 764:./Include/nrf52_erratas.h ****         #elif defined (NRF52805_XXAA) || defined (DEVELOP_IN_NRF52805)\
 765:./Include/nrf52_erratas.h ****          || defined (NRF52810_XXAA) || defined (DEVELOP_IN_NRF52810)\
 766:./Include/nrf52_erratas.h ****          || defined (NRF52811_XXAA) || defined (DEVELOP_IN_NRF52811)\
 767:./Include/nrf52_erratas.h ****          || defined (NRF52840_XXAA) || defined (DEVELOP_IN_NRF52840)
 768:./Include/nrf52_erratas.h ****             uint32_t var1 = *(uint32_t *)0x10000130ul;
 769:./Include/nrf52_erratas.h ****             uint32_t var2 = *(uint32_t *)0x10000134ul;
 770:./Include/nrf52_erratas.h ****         #endif
 771:./Include/nrf52_erratas.h ****         #if defined (NRF52832_XXAA) || defined (DEVELOP_IN_NRF52832)\
 772:./Include/nrf52_erratas.h ****          || defined (NRF52832_XXAB) || defined (DEVELOP_IN_NRF52832)
 773:./Include/nrf52_erratas.h ****             if (var1 == 0x06)
 774:./Include/nrf52_erratas.h ****             {
 775:./Include/nrf52_erratas.h ****                 switch(var2)
 776:./Include/nrf52_erratas.h ****                 {
 777:./Include/nrf52_erratas.h ****                     case 0x03ul:
 778:./Include/nrf52_erratas.h ****                         return true;
 779:./Include/nrf52_erratas.h ****                     case 0x04ul:
 780:./Include/nrf52_erratas.h ****                         return true;
 781:./Include/nrf52_erratas.h ****                     case 0x05ul:
 782:./Include/nrf52_erratas.h ****                         return true;
 783:./Include/nrf52_erratas.h ****                     case 0x06ul:
 784:./Include/nrf52_erratas.h ****                         return true;
 785:./Include/nrf52_erratas.h ****                     case 0x07ul:
 786:./Include/nrf52_erratas.h ****                         return true;
 787:./Include/nrf52_erratas.h ****                     default:
 788:./Include/nrf52_erratas.h ****                         return true;
 789:./Include/nrf52_erratas.h ****                 }
 790:./Include/nrf52_erratas.h ****             }
 791:./Include/nrf52_erratas.h ****         #endif
 792:./Include/nrf52_erratas.h ****         #if defined (NRF52840_XXAA) || defined (DEVELOP_IN_NRF52840)
 793:./Include/nrf52_erratas.h ****             if (var1 == 0x08)
 794:./Include/nrf52_erratas.h ****             {
 795:./Include/nrf52_erratas.h ****                 switch(var2)
 796:./Include/nrf52_erratas.h ****                 {
 797:./Include/nrf52_erratas.h ****                     case 0x00ul:
 798:./Include/nrf52_erratas.h ****                         return true;
 799:./Include/nrf52_erratas.h ****                     case 0x01ul:
 800:./Include/nrf52_erratas.h ****                         return false;
 801:./Include/nrf52_erratas.h ****                     case 0x02ul:
 802:./Include/nrf52_erratas.h ****                         return false;
 803:./Include/nrf52_erratas.h ****                     case 0x03ul:
 804:./Include/nrf52_erratas.h ****                         return false;
 805:./Include/nrf52_erratas.h ****                     case 0x04ul:
 806:./Include/nrf52_erratas.h ****                         return false;
 807:./Include/nrf52_erratas.h ****                     case 0x05ul:
 808:./Include/nrf52_erratas.h ****                         return false;
 809:./Include/nrf52_erratas.h ****                     default:
 810:./Include/nrf52_erratas.h ****                         return false;
 811:./Include/nrf52_erratas.h ****                 }
 812:./Include/nrf52_erratas.h ****             }
 813:./Include/nrf52_erratas.h ****         #endif
 814:./Include/nrf52_erratas.h ****         #if defined (NRF52810_XXAA) || defined (DEVELOP_IN_NRF52810)
 815:./Include/nrf52_erratas.h ****             if (var1 == 0x0A)
 816:./Include/nrf52_erratas.h ****             {
 817:./Include/nrf52_erratas.h ****                 switch(var2)
 818:./Include/nrf52_erratas.h ****                 {
 819:./Include/nrf52_erratas.h ****                     case 0x00ul:
 820:./Include/nrf52_erratas.h ****                         return true;
 821:./Include/nrf52_erratas.h ****                     case 0x01ul:
 822:./Include/nrf52_erratas.h ****                         return true;
 823:./Include/nrf52_erratas.h ****                     case 0x02ul:
 824:./Include/nrf52_erratas.h ****                         return true;
 825:./Include/nrf52_erratas.h ****                     default:
 826:./Include/nrf52_erratas.h ****                         return true;
 827:./Include/nrf52_erratas.h ****                 }
 828:./Include/nrf52_erratas.h ****             }
 829:./Include/nrf52_erratas.h ****         #endif
 830:./Include/nrf52_erratas.h ****         #if defined (NRF52811_XXAA) || defined (DEVELOP_IN_NRF52811)
 831:./Include/nrf52_erratas.h ****             if (var1 == 0x0E)
 832:./Include/nrf52_erratas.h ****             {
 833:./Include/nrf52_erratas.h ****                 switch(var2)
 834:./Include/nrf52_erratas.h ****                 {
 835:./Include/nrf52_erratas.h ****                     case 0x00ul:
 836:./Include/nrf52_erratas.h ****                         return true;
 837:./Include/nrf52_erratas.h ****                     case 0x01ul:
 838:./Include/nrf52_erratas.h ****                         return true;
 839:./Include/nrf52_erratas.h ****                     default:
 840:./Include/nrf52_erratas.h ****                         return true;
 841:./Include/nrf52_erratas.h ****                 }
 842:./Include/nrf52_erratas.h ****             }
 843:./Include/nrf52_erratas.h ****         #endif
 844:./Include/nrf52_erratas.h ****         #if defined (NRF52805_XXAA) || defined (DEVELOP_IN_NRF52805)
 845:./Include/nrf52_erratas.h ****             if (var1 == 0x0F)
 846:./Include/nrf52_erratas.h ****             {
 847:./Include/nrf52_erratas.h ****                 switch(var2)
 848:./Include/nrf52_erratas.h ****                 {
 849:./Include/nrf52_erratas.h ****                     case 0x00ul:
 850:./Include/nrf52_erratas.h ****                         return true;
 851:./Include/nrf52_erratas.h ****                     case 0x01ul:
 852:./Include/nrf52_erratas.h ****                         return true;
 853:./Include/nrf52_erratas.h ****                     default:
 854:./Include/nrf52_erratas.h ****                         return true;
 855:./Include/nrf52_erratas.h ****                 }
 856:./Include/nrf52_erratas.h ****             }
 857:./Include/nrf52_erratas.h ****         #endif
 858:./Include/nrf52_erratas.h ****         return false;
 859:./Include/nrf52_erratas.h ****     #endif
 860:./Include/nrf52_erratas.h **** }
 861:./Include/nrf52_erratas.h **** 
 862:./Include/nrf52_erratas.h **** /* ========= Errata 16 ========= */
 863:./Include/nrf52_erratas.h **** #if    defined (NRF52832_XXAA) || defined (DEVELOP_IN_NRF52832) \
 864:./Include/nrf52_erratas.h ****     || defined (NRF52832_XXAB) || defined (DEVELOP_IN_NRF52832)
 865:./Include/nrf52_erratas.h ****     #define NRF52_ERRATA_16_PRESENT 1
 866:./Include/nrf52_erratas.h **** #else
 867:./Include/nrf52_erratas.h ****     #define NRF52_ERRATA_16_PRESENT 0
 868:./Include/nrf52_erratas.h **** #endif
 869:./Include/nrf52_erratas.h **** 
 870:./Include/nrf52_erratas.h **** #ifndef NRF52_ERRATA_16_ENABLE_WORKAROUND
 871:./Include/nrf52_erratas.h ****     #define NRF52_ERRATA_16_ENABLE_WORKAROUND NRF52_ERRATA_16_PRESENT
 872:./Include/nrf52_erratas.h **** #endif
 873:./Include/nrf52_erratas.h **** 
 874:./Include/nrf52_erratas.h **** static bool nrf52_errata_16(void)
 875:./Include/nrf52_erratas.h **** {
 876:./Include/nrf52_erratas.h ****     #ifndef NRF52_SERIES
 877:./Include/nrf52_erratas.h ****         return false;
 878:./Include/nrf52_erratas.h ****     #else
 879:./Include/nrf52_erratas.h ****         #if defined (NRF52832_XXAA) || defined (DEVELOP_IN_NRF52832)\
 880:./Include/nrf52_erratas.h ****          || defined (NRF52832_XXAB) || defined (DEVELOP_IN_NRF52832)
 881:./Include/nrf52_erratas.h ****             uint32_t var1 = ((*(uint32_t *)0xF0000FE0ul) & 0x000000FFul);
 882:./Include/nrf52_erratas.h ****             uint32_t var2 = ((*(uint32_t *)0xF0000FE8ul) & 0x000000F0ul) >> 4;
 883:./Include/nrf52_erratas.h ****         #endif
 884:./Include/nrf52_erratas.h ****         #if defined (NRF52832_XXAA) || defined (DEVELOP_IN_NRF52832)\
 885:./Include/nrf52_erratas.h ****          || defined (NRF52832_XXAB) || defined (DEVELOP_IN_NRF52832)
 886:./Include/nrf52_erratas.h ****             if (var1 == 0x06)
 887:./Include/nrf52_erratas.h ****             {
 888:./Include/nrf52_erratas.h ****                 switch(var2)
 889:./Include/nrf52_erratas.h ****                 {
 890:./Include/nrf52_erratas.h ****                     case 0x03ul:
 891:./Include/nrf52_erratas.h ****                         return true;
 892:./Include/nrf52_erratas.h ****                     case 0x04ul:
 893:./Include/nrf52_erratas.h ****                         return false;
 894:./Include/nrf52_erratas.h ****                     case 0x05ul:
 895:./Include/nrf52_erratas.h ****                         return false;
 896:./Include/nrf52_erratas.h ****                     case 0x06ul:
 897:./Include/nrf52_erratas.h ****                         return false;
 898:./Include/nrf52_erratas.h ****                     case 0x07ul:
 899:./Include/nrf52_erratas.h ****                         return false;
 900:./Include/nrf52_erratas.h ****                     default:
 901:./Include/nrf52_erratas.h ****                         return false;
 902:./Include/nrf52_erratas.h ****                 }
 903:./Include/nrf52_erratas.h ****             }
 904:./Include/nrf52_erratas.h ****         #endif
 905:./Include/nrf52_erratas.h ****         return false;
 906:./Include/nrf52_erratas.h ****     #endif
 907:./Include/nrf52_erratas.h **** }
 908:./Include/nrf52_erratas.h **** 
 909:./Include/nrf52_erratas.h **** /* ========= Errata 17 ========= */
 910:./Include/nrf52_erratas.h **** #if    defined (NRF52832_XXAA) || defined (DEVELOP_IN_NRF52832) \
 911:./Include/nrf52_erratas.h ****     || defined (NRF52832_XXAB) || defined (DEVELOP_IN_NRF52832)
 912:./Include/nrf52_erratas.h ****     #define NRF52_ERRATA_17_PRESENT 1
 913:./Include/nrf52_erratas.h **** #else
 914:./Include/nrf52_erratas.h ****     #define NRF52_ERRATA_17_PRESENT 0
 915:./Include/nrf52_erratas.h **** #endif
 916:./Include/nrf52_erratas.h **** 
 917:./Include/nrf52_erratas.h **** #ifndef NRF52_ERRATA_17_ENABLE_WORKAROUND
 918:./Include/nrf52_erratas.h ****     #define NRF52_ERRATA_17_ENABLE_WORKAROUND NRF52_ERRATA_17_PRESENT
 919:./Include/nrf52_erratas.h **** #endif
 920:./Include/nrf52_erratas.h **** 
 921:./Include/nrf52_erratas.h **** static bool nrf52_errata_17(void)
 922:./Include/nrf52_erratas.h **** {
 923:./Include/nrf52_erratas.h ****     #ifndef NRF52_SERIES
 924:./Include/nrf52_erratas.h ****         return false;
 925:./Include/nrf52_erratas.h ****     #else
 926:./Include/nrf52_erratas.h ****         #if defined (NRF52832_XXAA) || defined (DEVELOP_IN_NRF52832)\
 927:./Include/nrf52_erratas.h ****          || defined (NRF52832_XXAB) || defined (DEVELOP_IN_NRF52832)
 928:./Include/nrf52_erratas.h ****             uint32_t var1 = ((*(uint32_t *)0xF0000FE0ul) & 0x000000FFul);
 929:./Include/nrf52_erratas.h ****             uint32_t var2 = ((*(uint32_t *)0xF0000FE8ul) & 0x000000F0ul) >> 4;
 930:./Include/nrf52_erratas.h ****         #endif
 931:./Include/nrf52_erratas.h ****         #if defined (NRF52832_XXAA) || defined (DEVELOP_IN_NRF52832)\
 932:./Include/nrf52_erratas.h ****          || defined (NRF52832_XXAB) || defined (DEVELOP_IN_NRF52832)
 933:./Include/nrf52_erratas.h ****             if (var1 == 0x06)
 934:./Include/nrf52_erratas.h ****             {
 935:./Include/nrf52_erratas.h ****                 switch(var2)
 936:./Include/nrf52_erratas.h ****                 {
 937:./Include/nrf52_erratas.h ****                     case 0x03ul:
 938:./Include/nrf52_erratas.h ****                         return true;
 939:./Include/nrf52_erratas.h ****                     case 0x04ul:
 940:./Include/nrf52_erratas.h ****                         return false;
 941:./Include/nrf52_erratas.h ****                     case 0x05ul:
 942:./Include/nrf52_erratas.h ****                         return false;
 943:./Include/nrf52_erratas.h ****                     case 0x06ul:
 944:./Include/nrf52_erratas.h ****                         return false;
 945:./Include/nrf52_erratas.h ****                     case 0x07ul:
 946:./Include/nrf52_erratas.h ****                         return false;
 947:./Include/nrf52_erratas.h ****                     default:
 948:./Include/nrf52_erratas.h ****                         return false;
 949:./Include/nrf52_erratas.h ****                 }
 950:./Include/nrf52_erratas.h ****             }
 951:./Include/nrf52_erratas.h ****         #endif
 952:./Include/nrf52_erratas.h ****         return false;
 953:./Include/nrf52_erratas.h ****     #endif
 954:./Include/nrf52_erratas.h **** }
 955:./Include/nrf52_erratas.h **** 
 956:./Include/nrf52_erratas.h **** /* ========= Errata 20 ========= */
 957:./Include/nrf52_erratas.h **** #if    defined (NRF52805_XXAA) || defined (DEVELOP_IN_NRF52805) \
 958:./Include/nrf52_erratas.h ****     || defined (NRF52810_XXAA) || defined (DEVELOP_IN_NRF52810) \
 959:./Include/nrf52_erratas.h ****     || defined (NRF52811_XXAA) || defined (DEVELOP_IN_NRF52811) \
 960:./Include/nrf52_erratas.h ****     || defined (NRF52820_XXAA) || defined (DEVELOP_IN_NRF52820) \
 961:./Include/nrf52_erratas.h ****     || defined (NRF52832_XXAA) || defined (DEVELOP_IN_NRF52832) \
 962:./Include/nrf52_erratas.h ****     || defined (NRF52832_XXAB) || defined (DEVELOP_IN_NRF52832) \
 963:./Include/nrf52_erratas.h ****     || defined (NRF52833_XXAA) || defined (DEVELOP_IN_NRF52833) \
 964:./Include/nrf52_erratas.h ****     || defined (NRF52840_XXAA) || defined (DEVELOP_IN_NRF52840)
 965:./Include/nrf52_erratas.h ****     #define NRF52_ERRATA_20_PRESENT 1
 966:./Include/nrf52_erratas.h **** #else
 967:./Include/nrf52_erratas.h ****     #define NRF52_ERRATA_20_PRESENT 0
 968:./Include/nrf52_erratas.h **** #endif
 969:./Include/nrf52_erratas.h **** 
 970:./Include/nrf52_erratas.h **** #ifndef NRF52_ERRATA_20_ENABLE_WORKAROUND
 971:./Include/nrf52_erratas.h ****     #define NRF52_ERRATA_20_ENABLE_WORKAROUND NRF52_ERRATA_20_PRESENT
 972:./Include/nrf52_erratas.h **** #endif
 973:./Include/nrf52_erratas.h **** 
 974:./Include/nrf52_erratas.h **** static bool nrf52_errata_20(void)
 975:./Include/nrf52_erratas.h **** {
 976:./Include/nrf52_erratas.h ****     #ifndef NRF52_SERIES
 977:./Include/nrf52_erratas.h ****         return false;
 978:./Include/nrf52_erratas.h ****     #else
 979:./Include/nrf52_erratas.h ****         #if defined (NRF52832_XXAA) || defined (DEVELOP_IN_NRF52832)\
 980:./Include/nrf52_erratas.h ****          || defined (NRF52832_XXAB) || defined (DEVELOP_IN_NRF52832)
 981:./Include/nrf52_erratas.h ****             uint32_t var1;
 982:./Include/nrf52_erratas.h ****             uint32_t var2;
 983:./Include/nrf52_erratas.h **** 
 984:./Include/nrf52_erratas.h ****             if (*(uint32_t *)0x10000130ul == 0xFFFFFFFF)
 985:./Include/nrf52_erratas.h ****             {
 986:./Include/nrf52_erratas.h ****                 var1 = ((*(uint32_t *)0xF0000FE0ul) & 0x000000FFul);
 987:./Include/nrf52_erratas.h ****                 var2 = ((*(uint32_t *)0xF0000FE8ul) & 0x000000F0ul) >> 4;
 988:./Include/nrf52_erratas.h ****             }
 989:./Include/nrf52_erratas.h ****             else
 990:./Include/nrf52_erratas.h ****             {
 991:./Include/nrf52_erratas.h ****                 var1 = *(uint32_t *)0x10000130ul;
 992:./Include/nrf52_erratas.h ****                 var2 = *(uint32_t *)0x10000134ul;
 993:./Include/nrf52_erratas.h ****             }
 994:./Include/nrf52_erratas.h ****         #elif defined (NRF52805_XXAA) || defined (DEVELOP_IN_NRF52805)\
 995:./Include/nrf52_erratas.h ****          || defined (NRF52810_XXAA) || defined (DEVELOP_IN_NRF52810)\
 996:./Include/nrf52_erratas.h ****          || defined (NRF52811_XXAA) || defined (DEVELOP_IN_NRF52811)\
 997:./Include/nrf52_erratas.h ****          || defined (NRF52820_XXAA) || defined (DEVELOP_IN_NRF52820)\
 998:./Include/nrf52_erratas.h ****          || defined (NRF52833_XXAA) || defined (DEVELOP_IN_NRF52833)\
 999:./Include/nrf52_erratas.h ****          || defined (NRF52840_XXAA) || defined (DEVELOP_IN_NRF52840)
1000:./Include/nrf52_erratas.h ****             uint32_t var1 = *(uint32_t *)0x10000130ul;
1001:./Include/nrf52_erratas.h ****             uint32_t var2 = *(uint32_t *)0x10000134ul;
1002:./Include/nrf52_erratas.h ****         #endif
1003:./Include/nrf52_erratas.h ****         #if defined (NRF52832_XXAA) || defined (DEVELOP_IN_NRF52832)\
1004:./Include/nrf52_erratas.h ****          || defined (NRF52832_XXAB) || defined (DEVELOP_IN_NRF52832)
1005:./Include/nrf52_erratas.h ****             if (var1 == 0x06)
1006:./Include/nrf52_erratas.h ****             {
1007:./Include/nrf52_erratas.h ****                 switch(var2)
1008:./Include/nrf52_erratas.h ****                 {
1009:./Include/nrf52_erratas.h ****                     case 0x03ul:
1010:./Include/nrf52_erratas.h ****                         return true;
1011:./Include/nrf52_erratas.h ****                     case 0x04ul:
1012:./Include/nrf52_erratas.h ****                         return true;
1013:./Include/nrf52_erratas.h ****                     case 0x05ul:
1014:./Include/nrf52_erratas.h ****                         return true;
1015:./Include/nrf52_erratas.h ****                     case 0x06ul:
1016:./Include/nrf52_erratas.h ****                         return true;
1017:./Include/nrf52_erratas.h ****                     case 0x07ul:
1018:./Include/nrf52_erratas.h ****                         return true;
1019:./Include/nrf52_erratas.h ****                     default:
1020:./Include/nrf52_erratas.h ****                         return true;
1021:./Include/nrf52_erratas.h ****                 }
1022:./Include/nrf52_erratas.h ****             }
1023:./Include/nrf52_erratas.h ****         #endif
1024:./Include/nrf52_erratas.h ****         #if defined (NRF52840_XXAA) || defined (DEVELOP_IN_NRF52840)
1025:./Include/nrf52_erratas.h ****             if (var1 == 0x08)
1026:./Include/nrf52_erratas.h ****             {
1027:./Include/nrf52_erratas.h ****                 switch(var2)
1028:./Include/nrf52_erratas.h ****                 {
1029:./Include/nrf52_erratas.h ****                     case 0x00ul:
1030:./Include/nrf52_erratas.h ****                         return true;
1031:./Include/nrf52_erratas.h ****                     case 0x01ul:
1032:./Include/nrf52_erratas.h ****                         return true;
1033:./Include/nrf52_erratas.h ****                     case 0x02ul:
1034:./Include/nrf52_erratas.h ****                         return true;
1035:./Include/nrf52_erratas.h ****                     case 0x03ul:
1036:./Include/nrf52_erratas.h ****                         return true;
1037:./Include/nrf52_erratas.h ****                     case 0x04ul:
1038:./Include/nrf52_erratas.h ****                         return true;
1039:./Include/nrf52_erratas.h ****                     case 0x05ul:
1040:./Include/nrf52_erratas.h ****                         return true;
1041:./Include/nrf52_erratas.h ****                     default:
1042:./Include/nrf52_erratas.h ****                         return true;
1043:./Include/nrf52_erratas.h ****                 }
1044:./Include/nrf52_erratas.h ****             }
1045:./Include/nrf52_erratas.h ****         #endif
1046:./Include/nrf52_erratas.h ****         #if defined (NRF52810_XXAA) || defined (DEVELOP_IN_NRF52810)
1047:./Include/nrf52_erratas.h ****             if (var1 == 0x0A)
1048:./Include/nrf52_erratas.h ****             {
1049:./Include/nrf52_erratas.h ****                 switch(var2)
1050:./Include/nrf52_erratas.h ****                 {
1051:./Include/nrf52_erratas.h ****                     case 0x00ul:
1052:./Include/nrf52_erratas.h ****                         return true;
1053:./Include/nrf52_erratas.h ****                     case 0x01ul:
1054:./Include/nrf52_erratas.h ****                         return true;
1055:./Include/nrf52_erratas.h ****                     case 0x02ul:
1056:./Include/nrf52_erratas.h ****                         return true;
1057:./Include/nrf52_erratas.h ****                     default:
1058:./Include/nrf52_erratas.h ****                         return true;
1059:./Include/nrf52_erratas.h ****                 }
1060:./Include/nrf52_erratas.h ****             }
1061:./Include/nrf52_erratas.h ****         #endif
1062:./Include/nrf52_erratas.h ****         #if defined (NRF52833_XXAA) || defined (DEVELOP_IN_NRF52833)
1063:./Include/nrf52_erratas.h ****             if (var1 == 0x0D)
1064:./Include/nrf52_erratas.h ****             {
1065:./Include/nrf52_erratas.h ****                 switch(var2)
1066:./Include/nrf52_erratas.h ****                 {
1067:./Include/nrf52_erratas.h ****                     case 0x00ul:
1068:./Include/nrf52_erratas.h ****                         return true;
1069:./Include/nrf52_erratas.h ****                     case 0x01ul:
1070:./Include/nrf52_erratas.h ****                         return true;
1071:./Include/nrf52_erratas.h ****                     default:
1072:./Include/nrf52_erratas.h ****                         return true;
1073:./Include/nrf52_erratas.h ****                 }
1074:./Include/nrf52_erratas.h ****             }
1075:./Include/nrf52_erratas.h ****         #endif
1076:./Include/nrf52_erratas.h ****         #if defined (NRF52811_XXAA) || defined (DEVELOP_IN_NRF52811)
1077:./Include/nrf52_erratas.h ****             if (var1 == 0x0E)
1078:./Include/nrf52_erratas.h ****             {
1079:./Include/nrf52_erratas.h ****                 switch(var2)
1080:./Include/nrf52_erratas.h ****                 {
1081:./Include/nrf52_erratas.h ****                     case 0x00ul:
1082:./Include/nrf52_erratas.h ****                         return true;
1083:./Include/nrf52_erratas.h ****                     case 0x01ul:
1084:./Include/nrf52_erratas.h ****                         return true;
1085:./Include/nrf52_erratas.h ****                     default:
1086:./Include/nrf52_erratas.h ****                         return true;
1087:./Include/nrf52_erratas.h ****                 }
1088:./Include/nrf52_erratas.h ****             }
1089:./Include/nrf52_erratas.h ****         #endif
1090:./Include/nrf52_erratas.h ****         #if defined (NRF52805_XXAA) || defined (DEVELOP_IN_NRF52805)
1091:./Include/nrf52_erratas.h ****             if (var1 == 0x0F)
1092:./Include/nrf52_erratas.h ****             {
1093:./Include/nrf52_erratas.h ****                 switch(var2)
1094:./Include/nrf52_erratas.h ****                 {
1095:./Include/nrf52_erratas.h ****                     case 0x00ul:
1096:./Include/nrf52_erratas.h ****                         return true;
1097:./Include/nrf52_erratas.h ****                     case 0x01ul:
1098:./Include/nrf52_erratas.h ****                         return true;
1099:./Include/nrf52_erratas.h ****                     default:
1100:./Include/nrf52_erratas.h ****                         return true;
1101:./Include/nrf52_erratas.h ****                 }
1102:./Include/nrf52_erratas.h ****             }
1103:./Include/nrf52_erratas.h ****         #endif
1104:./Include/nrf52_erratas.h ****         #if defined (NRF52820_XXAA) || defined (DEVELOP_IN_NRF52820)
1105:./Include/nrf52_erratas.h ****             if (var1 == 0x10)
1106:./Include/nrf52_erratas.h ****             {
1107:./Include/nrf52_erratas.h ****                 switch(var2)
1108:./Include/nrf52_erratas.h ****                 {
1109:./Include/nrf52_erratas.h ****                     case 0x00ul:
1110:./Include/nrf52_erratas.h ****                         return true;
1111:./Include/nrf52_erratas.h ****                     case 0x01ul:
1112:./Include/nrf52_erratas.h ****                         return true;
1113:./Include/nrf52_erratas.h ****                     case 0x02ul:
1114:./Include/nrf52_erratas.h ****                         return true;
1115:./Include/nrf52_erratas.h ****                     case 0x03ul:
1116:./Include/nrf52_erratas.h ****                         return true;
1117:./Include/nrf52_erratas.h ****                     default:
1118:./Include/nrf52_erratas.h ****                         return true;
1119:./Include/nrf52_erratas.h ****                 }
1120:./Include/nrf52_erratas.h ****             }
1121:./Include/nrf52_erratas.h ****         #endif
1122:./Include/nrf52_erratas.h ****         return false;
1123:./Include/nrf52_erratas.h ****     #endif
1124:./Include/nrf52_erratas.h **** }
1125:./Include/nrf52_erratas.h **** 
1126:./Include/nrf52_erratas.h **** /* ========= Errata 23 ========= */
1127:./Include/nrf52_erratas.h **** #if    defined (NRF52832_XXAA) || defined (DEVELOP_IN_NRF52832) \
1128:./Include/nrf52_erratas.h ****     || defined (NRF52832_XXAB) || defined (DEVELOP_IN_NRF52832)
1129:./Include/nrf52_erratas.h ****     #define NRF52_ERRATA_23_PRESENT 1
1130:./Include/nrf52_erratas.h **** #else
1131:./Include/nrf52_erratas.h ****     #define NRF52_ERRATA_23_PRESENT 0
1132:./Include/nrf52_erratas.h **** #endif
1133:./Include/nrf52_erratas.h **** 
1134:./Include/nrf52_erratas.h **** #ifndef NRF52_ERRATA_23_ENABLE_WORKAROUND
1135:./Include/nrf52_erratas.h ****     #define NRF52_ERRATA_23_ENABLE_WORKAROUND NRF52_ERRATA_23_PRESENT
1136:./Include/nrf52_erratas.h **** #endif
1137:./Include/nrf52_erratas.h **** 
1138:./Include/nrf52_erratas.h **** static bool nrf52_errata_23(void)
1139:./Include/nrf52_erratas.h **** {
1140:./Include/nrf52_erratas.h ****     #ifndef NRF52_SERIES
1141:./Include/nrf52_erratas.h ****         return false;
1142:./Include/nrf52_erratas.h ****     #else
1143:./Include/nrf52_erratas.h ****         #if defined (NRF52832_XXAA) || defined (DEVELOP_IN_NRF52832)\
1144:./Include/nrf52_erratas.h ****          || defined (NRF52832_XXAB) || defined (DEVELOP_IN_NRF52832)
1145:./Include/nrf52_erratas.h ****             uint32_t var1 = ((*(uint32_t *)0xF0000FE0ul) & 0x000000FFul);
1146:./Include/nrf52_erratas.h ****             uint32_t var2 = ((*(uint32_t *)0xF0000FE8ul) & 0x000000F0ul) >> 4;
1147:./Include/nrf52_erratas.h ****         #endif
1148:./Include/nrf52_erratas.h ****         #if defined (NRF52832_XXAA) || defined (DEVELOP_IN_NRF52832)\
1149:./Include/nrf52_erratas.h ****          || defined (NRF52832_XXAB) || defined (DEVELOP_IN_NRF52832)
1150:./Include/nrf52_erratas.h ****             if (var1 == 0x06)
1151:./Include/nrf52_erratas.h ****             {
1152:./Include/nrf52_erratas.h ****                 switch(var2)
1153:./Include/nrf52_erratas.h ****                 {
1154:./Include/nrf52_erratas.h ****                     case 0x03ul:
1155:./Include/nrf52_erratas.h ****                         return true;
1156:./Include/nrf52_erratas.h ****                     case 0x04ul:
1157:./Include/nrf52_erratas.h ****                         return false;
1158:./Include/nrf52_erratas.h ****                     case 0x05ul:
1159:./Include/nrf52_erratas.h ****                         return false;
1160:./Include/nrf52_erratas.h ****                     case 0x06ul:
1161:./Include/nrf52_erratas.h ****                         return false;
1162:./Include/nrf52_erratas.h ****                     case 0x07ul:
1163:./Include/nrf52_erratas.h ****                         return false;
1164:./Include/nrf52_erratas.h ****                     default:
1165:./Include/nrf52_erratas.h ****                         return false;
1166:./Include/nrf52_erratas.h ****                 }
1167:./Include/nrf52_erratas.h ****             }
1168:./Include/nrf52_erratas.h ****         #endif
1169:./Include/nrf52_erratas.h ****         return false;
1170:./Include/nrf52_erratas.h ****     #endif
1171:./Include/nrf52_erratas.h **** }
1172:./Include/nrf52_erratas.h **** 
1173:./Include/nrf52_erratas.h **** /* ========= Errata 24 ========= */
1174:./Include/nrf52_erratas.h **** #if    defined (NRF52832_XXAA) || defined (DEVELOP_IN_NRF52832) \
1175:./Include/nrf52_erratas.h ****     || defined (NRF52832_XXAB) || defined (DEVELOP_IN_NRF52832)
1176:./Include/nrf52_erratas.h ****     #define NRF52_ERRATA_24_PRESENT 1
1177:./Include/nrf52_erratas.h **** #else
1178:./Include/nrf52_erratas.h ****     #define NRF52_ERRATA_24_PRESENT 0
1179:./Include/nrf52_erratas.h **** #endif
1180:./Include/nrf52_erratas.h **** 
1181:./Include/nrf52_erratas.h **** #ifndef NRF52_ERRATA_24_ENABLE_WORKAROUND
1182:./Include/nrf52_erratas.h ****     #define NRF52_ERRATA_24_ENABLE_WORKAROUND NRF52_ERRATA_24_PRESENT
1183:./Include/nrf52_erratas.h **** #endif
1184:./Include/nrf52_erratas.h **** 
1185:./Include/nrf52_erratas.h **** static bool nrf52_errata_24(void)
1186:./Include/nrf52_erratas.h **** {
1187:./Include/nrf52_erratas.h ****     #ifndef NRF52_SERIES
1188:./Include/nrf52_erratas.h ****         return false;
1189:./Include/nrf52_erratas.h ****     #else
1190:./Include/nrf52_erratas.h ****         #if defined (NRF52832_XXAA) || defined (DEVELOP_IN_NRF52832)\
1191:./Include/nrf52_erratas.h ****          || defined (NRF52832_XXAB) || defined (DEVELOP_IN_NRF52832)
1192:./Include/nrf52_erratas.h ****             uint32_t var1 = ((*(uint32_t *)0xF0000FE0ul) & 0x000000FFul);
1193:./Include/nrf52_erratas.h ****             uint32_t var2 = ((*(uint32_t *)0xF0000FE8ul) & 0x000000F0ul) >> 4;
1194:./Include/nrf52_erratas.h ****         #endif
1195:./Include/nrf52_erratas.h ****         #if defined (NRF52832_XXAA) || defined (DEVELOP_IN_NRF52832)\
1196:./Include/nrf52_erratas.h ****          || defined (NRF52832_XXAB) || defined (DEVELOP_IN_NRF52832)
1197:./Include/nrf52_erratas.h ****             if (var1 == 0x06)
1198:./Include/nrf52_erratas.h ****             {
1199:./Include/nrf52_erratas.h ****                 switch(var2)
1200:./Include/nrf52_erratas.h ****                 {
1201:./Include/nrf52_erratas.h ****                     case 0x03ul:
1202:./Include/nrf52_erratas.h ****                         return true;
1203:./Include/nrf52_erratas.h ****                     case 0x04ul:
1204:./Include/nrf52_erratas.h ****                         return false;
1205:./Include/nrf52_erratas.h ****                     case 0x05ul:
1206:./Include/nrf52_erratas.h ****                         return false;
1207:./Include/nrf52_erratas.h ****                     case 0x06ul:
1208:./Include/nrf52_erratas.h ****                         return false;
1209:./Include/nrf52_erratas.h ****                     case 0x07ul:
1210:./Include/nrf52_erratas.h ****                         return false;
1211:./Include/nrf52_erratas.h ****                     default:
1212:./Include/nrf52_erratas.h ****                         return false;
1213:./Include/nrf52_erratas.h ****                 }
1214:./Include/nrf52_erratas.h ****             }
1215:./Include/nrf52_erratas.h ****         #endif
1216:./Include/nrf52_erratas.h ****         return false;
1217:./Include/nrf52_erratas.h ****     #endif
1218:./Include/nrf52_erratas.h **** }
1219:./Include/nrf52_erratas.h **** 
1220:./Include/nrf52_erratas.h **** /* ========= Errata 25 ========= */
1221:./Include/nrf52_erratas.h **** #if    defined (NRF52832_XXAA) || defined (DEVELOP_IN_NRF52832) \
1222:./Include/nrf52_erratas.h ****     || defined (NRF52832_XXAB) || defined (DEVELOP_IN_NRF52832)
1223:./Include/nrf52_erratas.h ****     #define NRF52_ERRATA_25_PRESENT 1
1224:./Include/nrf52_erratas.h **** #else
1225:./Include/nrf52_erratas.h ****     #define NRF52_ERRATA_25_PRESENT 0
1226:./Include/nrf52_erratas.h **** #endif
1227:./Include/nrf52_erratas.h **** 
1228:./Include/nrf52_erratas.h **** #ifndef NRF52_ERRATA_25_ENABLE_WORKAROUND
1229:./Include/nrf52_erratas.h ****     #define NRF52_ERRATA_25_ENABLE_WORKAROUND NRF52_ERRATA_25_PRESENT
1230:./Include/nrf52_erratas.h **** #endif
1231:./Include/nrf52_erratas.h **** 
1232:./Include/nrf52_erratas.h **** static bool nrf52_errata_25(void)
1233:./Include/nrf52_erratas.h **** {
1234:./Include/nrf52_erratas.h ****     #ifndef NRF52_SERIES
1235:./Include/nrf52_erratas.h ****         return false;
1236:./Include/nrf52_erratas.h ****     #else
1237:./Include/nrf52_erratas.h ****         #if defined (NRF52832_XXAA) || defined (DEVELOP_IN_NRF52832)\
1238:./Include/nrf52_erratas.h ****          || defined (NRF52832_XXAB) || defined (DEVELOP_IN_NRF52832)
1239:./Include/nrf52_erratas.h ****             uint32_t var1 = ((*(uint32_t *)0xF0000FE0ul) & 0x000000FFul);
1240:./Include/nrf52_erratas.h ****             uint32_t var2 = ((*(uint32_t *)0xF0000FE8ul) & 0x000000F0ul) >> 4;
1241:./Include/nrf52_erratas.h ****         #endif
1242:./Include/nrf52_erratas.h ****         #if defined (NRF52832_XXAA) || defined (DEVELOP_IN_NRF52832)\
1243:./Include/nrf52_erratas.h ****          || defined (NRF52832_XXAB) || defined (DEVELOP_IN_NRF52832)
1244:./Include/nrf52_erratas.h ****             if (var1 == 0x06)
1245:./Include/nrf52_erratas.h ****             {
1246:./Include/nrf52_erratas.h ****                 switch(var2)
1247:./Include/nrf52_erratas.h ****                 {
1248:./Include/nrf52_erratas.h ****                     case 0x03ul:
1249:./Include/nrf52_erratas.h ****                         return true;
1250:./Include/nrf52_erratas.h ****                     case 0x04ul:
1251:./Include/nrf52_erratas.h ****                         return false;
1252:./Include/nrf52_erratas.h ****                     case 0x05ul:
1253:./Include/nrf52_erratas.h ****                         return false;
1254:./Include/nrf52_erratas.h ****                     case 0x06ul:
1255:./Include/nrf52_erratas.h ****                         return false;
1256:./Include/nrf52_erratas.h ****                     case 0x07ul:
1257:./Include/nrf52_erratas.h ****                         return false;
1258:./Include/nrf52_erratas.h ****                     default:
1259:./Include/nrf52_erratas.h ****                         return false;
1260:./Include/nrf52_erratas.h ****                 }
1261:./Include/nrf52_erratas.h ****             }
1262:./Include/nrf52_erratas.h ****         #endif
1263:./Include/nrf52_erratas.h ****         return false;
1264:./Include/nrf52_erratas.h ****     #endif
1265:./Include/nrf52_erratas.h **** }
1266:./Include/nrf52_erratas.h **** 
1267:./Include/nrf52_erratas.h **** /* ========= Errata 26 ========= */
1268:./Include/nrf52_erratas.h **** #if    defined (NRF52832_XXAA) || defined (DEVELOP_IN_NRF52832) \
1269:./Include/nrf52_erratas.h ****     || defined (NRF52832_XXAB) || defined (DEVELOP_IN_NRF52832)
1270:./Include/nrf52_erratas.h ****     #define NRF52_ERRATA_26_PRESENT 1
1271:./Include/nrf52_erratas.h **** #else
1272:./Include/nrf52_erratas.h ****     #define NRF52_ERRATA_26_PRESENT 0
1273:./Include/nrf52_erratas.h **** #endif
1274:./Include/nrf52_erratas.h **** 
1275:./Include/nrf52_erratas.h **** #ifndef NRF52_ERRATA_26_ENABLE_WORKAROUND
1276:./Include/nrf52_erratas.h ****     #define NRF52_ERRATA_26_ENABLE_WORKAROUND NRF52_ERRATA_26_PRESENT
1277:./Include/nrf52_erratas.h **** #endif
1278:./Include/nrf52_erratas.h **** 
1279:./Include/nrf52_erratas.h **** static bool nrf52_errata_26(void)
1280:./Include/nrf52_erratas.h **** {
1281:./Include/nrf52_erratas.h ****     #ifndef NRF52_SERIES
1282:./Include/nrf52_erratas.h ****         return false;
1283:./Include/nrf52_erratas.h ****     #else
1284:./Include/nrf52_erratas.h ****         #if defined (NRF52832_XXAA) || defined (DEVELOP_IN_NRF52832)\
1285:./Include/nrf52_erratas.h ****          || defined (NRF52832_XXAB) || defined (DEVELOP_IN_NRF52832)
1286:./Include/nrf52_erratas.h ****             uint32_t var1 = ((*(uint32_t *)0xF0000FE0ul) & 0x000000FFul);
1287:./Include/nrf52_erratas.h ****             uint32_t var2 = ((*(uint32_t *)0xF0000FE8ul) & 0x000000F0ul) >> 4;
1288:./Include/nrf52_erratas.h ****         #endif
1289:./Include/nrf52_erratas.h ****         #if defined (NRF52832_XXAA) || defined (DEVELOP_IN_NRF52832)\
1290:./Include/nrf52_erratas.h ****          || defined (NRF52832_XXAB) || defined (DEVELOP_IN_NRF52832)
1291:./Include/nrf52_erratas.h ****             if (var1 == 0x06)
1292:./Include/nrf52_erratas.h ****             {
1293:./Include/nrf52_erratas.h ****                 switch(var2)
1294:./Include/nrf52_erratas.h ****                 {
1295:./Include/nrf52_erratas.h ****                     case 0x03ul:
1296:./Include/nrf52_erratas.h ****                         return true;
1297:./Include/nrf52_erratas.h ****                     case 0x04ul:
1298:./Include/nrf52_erratas.h ****                         return false;
1299:./Include/nrf52_erratas.h ****                     case 0x05ul:
1300:./Include/nrf52_erratas.h ****                         return false;
1301:./Include/nrf52_erratas.h ****                     case 0x06ul:
1302:./Include/nrf52_erratas.h ****                         return false;
1303:./Include/nrf52_erratas.h ****                     case 0x07ul:
1304:./Include/nrf52_erratas.h ****                         return false;
1305:./Include/nrf52_erratas.h ****                     default:
1306:./Include/nrf52_erratas.h ****                         return false;
1307:./Include/nrf52_erratas.h ****                 }
1308:./Include/nrf52_erratas.h ****             }
1309:./Include/nrf52_erratas.h ****         #endif
1310:./Include/nrf52_erratas.h ****         return false;
1311:./Include/nrf52_erratas.h ****     #endif
1312:./Include/nrf52_erratas.h **** }
1313:./Include/nrf52_erratas.h **** 
1314:./Include/nrf52_erratas.h **** /* ========= Errata 27 ========= */
1315:./Include/nrf52_erratas.h **** #if    defined (NRF52832_XXAA) || defined (DEVELOP_IN_NRF52832) \
1316:./Include/nrf52_erratas.h ****     || defined (NRF52832_XXAB) || defined (DEVELOP_IN_NRF52832)
1317:./Include/nrf52_erratas.h ****     #define NRF52_ERRATA_27_PRESENT 1
1318:./Include/nrf52_erratas.h **** #else
1319:./Include/nrf52_erratas.h ****     #define NRF52_ERRATA_27_PRESENT 0
1320:./Include/nrf52_erratas.h **** #endif
1321:./Include/nrf52_erratas.h **** 
1322:./Include/nrf52_erratas.h **** #ifndef NRF52_ERRATA_27_ENABLE_WORKAROUND
1323:./Include/nrf52_erratas.h ****     #define NRF52_ERRATA_27_ENABLE_WORKAROUND NRF52_ERRATA_27_PRESENT
1324:./Include/nrf52_erratas.h **** #endif
1325:./Include/nrf52_erratas.h **** 
1326:./Include/nrf52_erratas.h **** static bool nrf52_errata_27(void)
1327:./Include/nrf52_erratas.h **** {
1328:./Include/nrf52_erratas.h ****     #ifndef NRF52_SERIES
1329:./Include/nrf52_erratas.h ****         return false;
1330:./Include/nrf52_erratas.h ****     #else
1331:./Include/nrf52_erratas.h ****         #if defined (NRF52832_XXAA) || defined (DEVELOP_IN_NRF52832)\
1332:./Include/nrf52_erratas.h ****          || defined (NRF52832_XXAB) || defined (DEVELOP_IN_NRF52832)
1333:./Include/nrf52_erratas.h ****             uint32_t var1 = ((*(uint32_t *)0xF0000FE0ul) & 0x000000FFul);
1334:./Include/nrf52_erratas.h ****             uint32_t var2 = ((*(uint32_t *)0xF0000FE8ul) & 0x000000F0ul) >> 4;
1335:./Include/nrf52_erratas.h ****         #endif
1336:./Include/nrf52_erratas.h ****         #if defined (NRF52832_XXAA) || defined (DEVELOP_IN_NRF52832)\
1337:./Include/nrf52_erratas.h ****          || defined (NRF52832_XXAB) || defined (DEVELOP_IN_NRF52832)
1338:./Include/nrf52_erratas.h ****             if (var1 == 0x06)
1339:./Include/nrf52_erratas.h ****             {
1340:./Include/nrf52_erratas.h ****                 switch(var2)
1341:./Include/nrf52_erratas.h ****                 {
1342:./Include/nrf52_erratas.h ****                     case 0x03ul:
1343:./Include/nrf52_erratas.h ****                         return true;
1344:./Include/nrf52_erratas.h ****                     case 0x04ul:
1345:./Include/nrf52_erratas.h ****                         return false;
1346:./Include/nrf52_erratas.h ****                     case 0x05ul:
1347:./Include/nrf52_erratas.h ****                         return false;
1348:./Include/nrf52_erratas.h ****                     case 0x06ul:
1349:./Include/nrf52_erratas.h ****                         return false;
1350:./Include/nrf52_erratas.h ****                     case 0x07ul:
1351:./Include/nrf52_erratas.h ****                         return false;
1352:./Include/nrf52_erratas.h ****                     default:
1353:./Include/nrf52_erratas.h ****                         return false;
1354:./Include/nrf52_erratas.h ****                 }
1355:./Include/nrf52_erratas.h ****             }
1356:./Include/nrf52_erratas.h ****         #endif
1357:./Include/nrf52_erratas.h ****         return false;
1358:./Include/nrf52_erratas.h ****     #endif
1359:./Include/nrf52_erratas.h **** }
1360:./Include/nrf52_erratas.h **** 
1361:./Include/nrf52_erratas.h **** /* ========= Errata 28 ========= */
1362:./Include/nrf52_erratas.h **** #if    defined (NRF52832_XXAA) || defined (DEVELOP_IN_NRF52832) \
1363:./Include/nrf52_erratas.h ****     || defined (NRF52832_XXAB) || defined (DEVELOP_IN_NRF52832)
1364:./Include/nrf52_erratas.h ****     #define NRF52_ERRATA_28_PRESENT 1
1365:./Include/nrf52_erratas.h **** #else
1366:./Include/nrf52_erratas.h ****     #define NRF52_ERRATA_28_PRESENT 0
1367:./Include/nrf52_erratas.h **** #endif
1368:./Include/nrf52_erratas.h **** 
1369:./Include/nrf52_erratas.h **** #ifndef NRF52_ERRATA_28_ENABLE_WORKAROUND
1370:./Include/nrf52_erratas.h ****     #define NRF52_ERRATA_28_ENABLE_WORKAROUND NRF52_ERRATA_28_PRESENT
1371:./Include/nrf52_erratas.h **** #endif
1372:./Include/nrf52_erratas.h **** 
1373:./Include/nrf52_erratas.h **** static bool nrf52_errata_28(void)
1374:./Include/nrf52_erratas.h **** {
1375:./Include/nrf52_erratas.h ****     #ifndef NRF52_SERIES
1376:./Include/nrf52_erratas.h ****         return false;
1377:./Include/nrf52_erratas.h ****     #else
1378:./Include/nrf52_erratas.h ****         #if defined (NRF52832_XXAA) || defined (DEVELOP_IN_NRF52832)\
1379:./Include/nrf52_erratas.h ****          || defined (NRF52832_XXAB) || defined (DEVELOP_IN_NRF52832)
1380:./Include/nrf52_erratas.h ****             uint32_t var1 = ((*(uint32_t *)0xF0000FE0ul) & 0x000000FFul);
1381:./Include/nrf52_erratas.h ****             uint32_t var2 = ((*(uint32_t *)0xF0000FE8ul) & 0x000000F0ul) >> 4;
1382:./Include/nrf52_erratas.h ****         #endif
1383:./Include/nrf52_erratas.h ****         #if defined (NRF52832_XXAA) || defined (DEVELOP_IN_NRF52832)\
1384:./Include/nrf52_erratas.h ****          || defined (NRF52832_XXAB) || defined (DEVELOP_IN_NRF52832)
1385:./Include/nrf52_erratas.h ****             if (var1 == 0x06)
1386:./Include/nrf52_erratas.h ****             {
1387:./Include/nrf52_erratas.h ****                 switch(var2)
1388:./Include/nrf52_erratas.h ****                 {
1389:./Include/nrf52_erratas.h ****                     case 0x03ul:
1390:./Include/nrf52_erratas.h ****                         return true;
1391:./Include/nrf52_erratas.h ****                     case 0x04ul:
1392:./Include/nrf52_erratas.h ****                         return false;
1393:./Include/nrf52_erratas.h ****                     case 0x05ul:
1394:./Include/nrf52_erratas.h ****                         return false;
1395:./Include/nrf52_erratas.h ****                     case 0x06ul:
1396:./Include/nrf52_erratas.h ****                         return false;
1397:./Include/nrf52_erratas.h ****                     case 0x07ul:
1398:./Include/nrf52_erratas.h ****                         return false;
1399:./Include/nrf52_erratas.h ****                     default:
1400:./Include/nrf52_erratas.h ****                         return false;
1401:./Include/nrf52_erratas.h ****                 }
1402:./Include/nrf52_erratas.h ****             }
1403:./Include/nrf52_erratas.h ****         #endif
1404:./Include/nrf52_erratas.h ****         return false;
1405:./Include/nrf52_erratas.h ****     #endif
1406:./Include/nrf52_erratas.h **** }
1407:./Include/nrf52_erratas.h **** 
1408:./Include/nrf52_erratas.h **** /* ========= Errata 29 ========= */
1409:./Include/nrf52_erratas.h **** #if    defined (NRF52832_XXAA) || defined (DEVELOP_IN_NRF52832) \
1410:./Include/nrf52_erratas.h ****     || defined (NRF52832_XXAB) || defined (DEVELOP_IN_NRF52832)
1411:./Include/nrf52_erratas.h ****     #define NRF52_ERRATA_29_PRESENT 1
1412:./Include/nrf52_erratas.h **** #else
1413:./Include/nrf52_erratas.h ****     #define NRF52_ERRATA_29_PRESENT 0
1414:./Include/nrf52_erratas.h **** #endif
1415:./Include/nrf52_erratas.h **** 
1416:./Include/nrf52_erratas.h **** #ifndef NRF52_ERRATA_29_ENABLE_WORKAROUND
1417:./Include/nrf52_erratas.h ****     #define NRF52_ERRATA_29_ENABLE_WORKAROUND NRF52_ERRATA_29_PRESENT
1418:./Include/nrf52_erratas.h **** #endif
1419:./Include/nrf52_erratas.h **** 
1420:./Include/nrf52_erratas.h **** static bool nrf52_errata_29(void)
1421:./Include/nrf52_erratas.h **** {
1422:./Include/nrf52_erratas.h ****     #ifndef NRF52_SERIES
1423:./Include/nrf52_erratas.h ****         return false;
1424:./Include/nrf52_erratas.h ****     #else
1425:./Include/nrf52_erratas.h ****         #if defined (NRF52832_XXAA) || defined (DEVELOP_IN_NRF52832)\
1426:./Include/nrf52_erratas.h ****          || defined (NRF52832_XXAB) || defined (DEVELOP_IN_NRF52832)
1427:./Include/nrf52_erratas.h ****             uint32_t var1 = ((*(uint32_t *)0xF0000FE0ul) & 0x000000FFul);
1428:./Include/nrf52_erratas.h ****             uint32_t var2 = ((*(uint32_t *)0xF0000FE8ul) & 0x000000F0ul) >> 4;
1429:./Include/nrf52_erratas.h ****         #endif
1430:./Include/nrf52_erratas.h ****         #if defined (NRF52832_XXAA) || defined (DEVELOP_IN_NRF52832)\
1431:./Include/nrf52_erratas.h ****          || defined (NRF52832_XXAB) || defined (DEVELOP_IN_NRF52832)
1432:./Include/nrf52_erratas.h ****             if (var1 == 0x06)
1433:./Include/nrf52_erratas.h ****             {
1434:./Include/nrf52_erratas.h ****                 switch(var2)
1435:./Include/nrf52_erratas.h ****                 {
1436:./Include/nrf52_erratas.h ****                     case 0x03ul:
1437:./Include/nrf52_erratas.h ****                         return true;
1438:./Include/nrf52_erratas.h ****                     case 0x04ul:
1439:./Include/nrf52_erratas.h ****                         return false;
1440:./Include/nrf52_erratas.h ****                     case 0x05ul:
1441:./Include/nrf52_erratas.h ****                         return false;
1442:./Include/nrf52_erratas.h ****                     case 0x06ul:
1443:./Include/nrf52_erratas.h ****                         return false;
1444:./Include/nrf52_erratas.h ****                     case 0x07ul:
1445:./Include/nrf52_erratas.h ****                         return false;
1446:./Include/nrf52_erratas.h ****                     default:
1447:./Include/nrf52_erratas.h ****                         return false;
1448:./Include/nrf52_erratas.h ****                 }
1449:./Include/nrf52_erratas.h ****             }
1450:./Include/nrf52_erratas.h ****         #endif
1451:./Include/nrf52_erratas.h ****         return false;
1452:./Include/nrf52_erratas.h ****     #endif
1453:./Include/nrf52_erratas.h **** }
1454:./Include/nrf52_erratas.h **** 
1455:./Include/nrf52_erratas.h **** /* ========= Errata 30 ========= */
1456:./Include/nrf52_erratas.h **** #if    defined (NRF52832_XXAA) || defined (DEVELOP_IN_NRF52832) \
1457:./Include/nrf52_erratas.h ****     || defined (NRF52832_XXAB) || defined (DEVELOP_IN_NRF52832)
1458:./Include/nrf52_erratas.h ****     #define NRF52_ERRATA_30_PRESENT 1
1459:./Include/nrf52_erratas.h **** #else
1460:./Include/nrf52_erratas.h ****     #define NRF52_ERRATA_30_PRESENT 0
1461:./Include/nrf52_erratas.h **** #endif
1462:./Include/nrf52_erratas.h **** 
1463:./Include/nrf52_erratas.h **** #ifndef NRF52_ERRATA_30_ENABLE_WORKAROUND
1464:./Include/nrf52_erratas.h ****     #define NRF52_ERRATA_30_ENABLE_WORKAROUND NRF52_ERRATA_30_PRESENT
1465:./Include/nrf52_erratas.h **** #endif
1466:./Include/nrf52_erratas.h **** 
1467:./Include/nrf52_erratas.h **** static bool nrf52_errata_30(void)
1468:./Include/nrf52_erratas.h **** {
1469:./Include/nrf52_erratas.h ****     #ifndef NRF52_SERIES
1470:./Include/nrf52_erratas.h ****         return false;
1471:./Include/nrf52_erratas.h ****     #else
1472:./Include/nrf52_erratas.h ****         #if defined (NRF52832_XXAA) || defined (DEVELOP_IN_NRF52832)\
1473:./Include/nrf52_erratas.h ****          || defined (NRF52832_XXAB) || defined (DEVELOP_IN_NRF52832)
1474:./Include/nrf52_erratas.h ****             uint32_t var1 = ((*(uint32_t *)0xF0000FE0ul) & 0x000000FFul);
1475:./Include/nrf52_erratas.h ****             uint32_t var2 = ((*(uint32_t *)0xF0000FE8ul) & 0x000000F0ul) >> 4;
1476:./Include/nrf52_erratas.h ****         #endif
1477:./Include/nrf52_erratas.h ****         #if defined (NRF52832_XXAA) || defined (DEVELOP_IN_NRF52832)\
1478:./Include/nrf52_erratas.h ****          || defined (NRF52832_XXAB) || defined (DEVELOP_IN_NRF52832)
1479:./Include/nrf52_erratas.h ****             if (var1 == 0x06)
1480:./Include/nrf52_erratas.h ****             {
1481:./Include/nrf52_erratas.h ****                 switch(var2)
1482:./Include/nrf52_erratas.h ****                 {
1483:./Include/nrf52_erratas.h ****                     case 0x03ul:
1484:./Include/nrf52_erratas.h ****                         return true;
1485:./Include/nrf52_erratas.h ****                     case 0x04ul:
1486:./Include/nrf52_erratas.h ****                         return false;
1487:./Include/nrf52_erratas.h ****                     case 0x05ul:
1488:./Include/nrf52_erratas.h ****                         return false;
1489:./Include/nrf52_erratas.h ****                     case 0x06ul:
1490:./Include/nrf52_erratas.h ****                         return false;
1491:./Include/nrf52_erratas.h ****                     case 0x07ul:
1492:./Include/nrf52_erratas.h ****                         return false;
1493:./Include/nrf52_erratas.h ****                     default:
1494:./Include/nrf52_erratas.h ****                         return false;
1495:./Include/nrf52_erratas.h ****                 }
1496:./Include/nrf52_erratas.h ****             }
1497:./Include/nrf52_erratas.h ****         #endif
1498:./Include/nrf52_erratas.h ****         return false;
1499:./Include/nrf52_erratas.h ****     #endif
1500:./Include/nrf52_erratas.h **** }
1501:./Include/nrf52_erratas.h **** 
1502:./Include/nrf52_erratas.h **** /* ========= Errata 31 ========= */
1503:./Include/nrf52_erratas.h **** #if    defined (NRF52805_XXAA) || defined (DEVELOP_IN_NRF52805) \
1504:./Include/nrf52_erratas.h ****     || defined (NRF52810_XXAA) || defined (DEVELOP_IN_NRF52810) \
1505:./Include/nrf52_erratas.h ****     || defined (NRF52811_XXAA) || defined (DEVELOP_IN_NRF52811) \
1506:./Include/nrf52_erratas.h ****     || defined (NRF52832_XXAA) || defined (DEVELOP_IN_NRF52832) \
1507:./Include/nrf52_erratas.h ****     || defined (NRF52832_XXAB) || defined (DEVELOP_IN_NRF52832)
1508:./Include/nrf52_erratas.h ****     #define NRF52_ERRATA_31_PRESENT 1
1509:./Include/nrf52_erratas.h **** #else
1510:./Include/nrf52_erratas.h ****     #define NRF52_ERRATA_31_PRESENT 0
1511:./Include/nrf52_erratas.h **** #endif
1512:./Include/nrf52_erratas.h **** 
1513:./Include/nrf52_erratas.h **** #ifndef NRF52_ERRATA_31_ENABLE_WORKAROUND
1514:./Include/nrf52_erratas.h ****     #define NRF52_ERRATA_31_ENABLE_WORKAROUND NRF52_ERRATA_31_PRESENT
1515:./Include/nrf52_erratas.h **** #endif
1516:./Include/nrf52_erratas.h **** 
1517:./Include/nrf52_erratas.h **** static bool nrf52_errata_31(void)
1518:./Include/nrf52_erratas.h **** {
1519:./Include/nrf52_erratas.h ****     #ifndef NRF52_SERIES
1520:./Include/nrf52_erratas.h ****         return false;
1521:./Include/nrf52_erratas.h ****     #else
1522:./Include/nrf52_erratas.h ****         #if defined (NRF52832_XXAA) || defined (DEVELOP_IN_NRF52832)\
1523:./Include/nrf52_erratas.h ****          || defined (NRF52832_XXAB) || defined (DEVELOP_IN_NRF52832)
1524:./Include/nrf52_erratas.h ****             uint32_t var1;
1525:./Include/nrf52_erratas.h ****             uint32_t var2;
1526:./Include/nrf52_erratas.h **** 
1527:./Include/nrf52_erratas.h ****             if (*(uint32_t *)0x10000130ul == 0xFFFFFFFF)
1528:./Include/nrf52_erratas.h ****             {
1529:./Include/nrf52_erratas.h ****                 var1 = ((*(uint32_t *)0xF0000FE0ul) & 0x000000FFul);
1530:./Include/nrf52_erratas.h ****                 var2 = ((*(uint32_t *)0xF0000FE8ul) & 0x000000F0ul) >> 4;
1531:./Include/nrf52_erratas.h ****             }
1532:./Include/nrf52_erratas.h ****             else
1533:./Include/nrf52_erratas.h ****             {
1534:./Include/nrf52_erratas.h ****                 var1 = *(uint32_t *)0x10000130ul;
1535:./Include/nrf52_erratas.h ****                 var2 = *(uint32_t *)0x10000134ul;
1536:./Include/nrf52_erratas.h ****             }
1537:./Include/nrf52_erratas.h ****         #elif defined (NRF52805_XXAA) || defined (DEVELOP_IN_NRF52805)\
1538:./Include/nrf52_erratas.h ****          || defined (NRF52810_XXAA) || defined (DEVELOP_IN_NRF52810)\
1539:./Include/nrf52_erratas.h ****          || defined (NRF52811_XXAA) || defined (DEVELOP_IN_NRF52811)
1540:./Include/nrf52_erratas.h ****             uint32_t var1 = *(uint32_t *)0x10000130ul;
1541:./Include/nrf52_erratas.h ****             uint32_t var2 = *(uint32_t *)0x10000134ul;
1542:./Include/nrf52_erratas.h ****         #endif
1543:./Include/nrf52_erratas.h ****         #if defined (NRF52832_XXAA) || defined (DEVELOP_IN_NRF52832)\
1544:./Include/nrf52_erratas.h ****          || defined (NRF52832_XXAB) || defined (DEVELOP_IN_NRF52832)
1545:./Include/nrf52_erratas.h ****             if (var1 == 0x06)
1546:./Include/nrf52_erratas.h ****             {
1547:./Include/nrf52_erratas.h ****                 switch(var2)
1548:./Include/nrf52_erratas.h ****                 {
1549:./Include/nrf52_erratas.h ****                     case 0x03ul:
1550:./Include/nrf52_erratas.h ****                         return true;
1551:./Include/nrf52_erratas.h ****                     case 0x04ul:
1552:./Include/nrf52_erratas.h ****                         return true;
1553:./Include/nrf52_erratas.h ****                     case 0x05ul:
1554:./Include/nrf52_erratas.h ****                         return true;
1555:./Include/nrf52_erratas.h ****                     case 0x06ul:
1556:./Include/nrf52_erratas.h ****                         return true;
1557:./Include/nrf52_erratas.h ****                     case 0x07ul:
1558:./Include/nrf52_erratas.h ****                         return true;
1559:./Include/nrf52_erratas.h ****                     default:
1560:./Include/nrf52_erratas.h ****                         return true;
1561:./Include/nrf52_erratas.h ****                 }
1562:./Include/nrf52_erratas.h ****             }
1563:./Include/nrf52_erratas.h ****         #endif
1564:./Include/nrf52_erratas.h ****         #if defined (NRF52810_XXAA) || defined (DEVELOP_IN_NRF52810)
1565:./Include/nrf52_erratas.h ****             if (var1 == 0x0A)
1566:./Include/nrf52_erratas.h ****             {
1567:./Include/nrf52_erratas.h ****                 switch(var2)
1568:./Include/nrf52_erratas.h ****                 {
1569:./Include/nrf52_erratas.h ****                     case 0x00ul:
1570:./Include/nrf52_erratas.h ****                         return true;
1571:./Include/nrf52_erratas.h ****                     case 0x01ul:
1572:./Include/nrf52_erratas.h ****                         return true;
1573:./Include/nrf52_erratas.h ****                     case 0x02ul:
1574:./Include/nrf52_erratas.h ****                         return true;
1575:./Include/nrf52_erratas.h ****                     default:
1576:./Include/nrf52_erratas.h ****                         return true;
1577:./Include/nrf52_erratas.h ****                 }
1578:./Include/nrf52_erratas.h ****             }
1579:./Include/nrf52_erratas.h ****         #endif
1580:./Include/nrf52_erratas.h ****         #if defined (NRF52811_XXAA) || defined (DEVELOP_IN_NRF52811)
1581:./Include/nrf52_erratas.h ****             if (var1 == 0x0E)
1582:./Include/nrf52_erratas.h ****             {
1583:./Include/nrf52_erratas.h ****                 switch(var2)
1584:./Include/nrf52_erratas.h ****                 {
1585:./Include/nrf52_erratas.h ****                     case 0x00ul:
1586:./Include/nrf52_erratas.h ****                         return true;
1587:./Include/nrf52_erratas.h ****                     case 0x01ul:
1588:./Include/nrf52_erratas.h ****                         return true;
1589:./Include/nrf52_erratas.h ****                     default:
1590:./Include/nrf52_erratas.h ****                         return true;
1591:./Include/nrf52_erratas.h ****                 }
1592:./Include/nrf52_erratas.h ****             }
1593:./Include/nrf52_erratas.h ****         #endif
1594:./Include/nrf52_erratas.h ****         #if defined (NRF52805_XXAA) || defined (DEVELOP_IN_NRF52805)
1595:./Include/nrf52_erratas.h ****             if (var1 == 0x0F)
1596:./Include/nrf52_erratas.h ****             {
1597:./Include/nrf52_erratas.h ****                 switch(var2)
1598:./Include/nrf52_erratas.h ****                 {
1599:./Include/nrf52_erratas.h ****                     case 0x00ul:
1600:./Include/nrf52_erratas.h ****                         return true;
1601:./Include/nrf52_erratas.h ****                     case 0x01ul:
1602:./Include/nrf52_erratas.h ****                         return true;
1603:./Include/nrf52_erratas.h ****                     default:
1604:./Include/nrf52_erratas.h ****                         return true;
1605:./Include/nrf52_erratas.h ****                 }
1606:./Include/nrf52_erratas.h ****             }
1607:./Include/nrf52_erratas.h ****         #endif
1608:./Include/nrf52_erratas.h ****         return false;
1609:./Include/nrf52_erratas.h ****     #endif
1610:./Include/nrf52_erratas.h **** }
1611:./Include/nrf52_erratas.h **** 
1612:./Include/nrf52_erratas.h **** /* ========= Errata 32 ========= */
1613:./Include/nrf52_erratas.h **** #if    defined (NRF52832_XXAA) || defined (DEVELOP_IN_NRF52832) \
1614:./Include/nrf52_erratas.h ****     || defined (NRF52832_XXAB) || defined (DEVELOP_IN_NRF52832)
1615:./Include/nrf52_erratas.h ****     #define NRF52_ERRATA_32_PRESENT 1
1616:./Include/nrf52_erratas.h **** #else
1617:./Include/nrf52_erratas.h ****     #define NRF52_ERRATA_32_PRESENT 0
1618:./Include/nrf52_erratas.h **** #endif
1619:./Include/nrf52_erratas.h **** 
1620:./Include/nrf52_erratas.h **** #ifndef NRF52_ERRATA_32_ENABLE_WORKAROUND
1621:./Include/nrf52_erratas.h ****     #define NRF52_ERRATA_32_ENABLE_WORKAROUND NRF52_ERRATA_32_PRESENT
1622:./Include/nrf52_erratas.h **** #endif
1623:./Include/nrf52_erratas.h **** 
1624:./Include/nrf52_erratas.h **** static bool nrf52_errata_32(void)
1625:./Include/nrf52_erratas.h **** {
1626:./Include/nrf52_erratas.h ****     #ifndef NRF52_SERIES
1627:./Include/nrf52_erratas.h ****         return false;
1628:./Include/nrf52_erratas.h ****     #else
1629:./Include/nrf52_erratas.h ****         #if defined (NRF52832_XXAA) || defined (DEVELOP_IN_NRF52832)\
1630:./Include/nrf52_erratas.h ****          || defined (NRF52832_XXAB) || defined (DEVELOP_IN_NRF52832)
1631:./Include/nrf52_erratas.h ****             uint32_t var1 = ((*(uint32_t *)0xF0000FE0ul) & 0x000000FFul);
1632:./Include/nrf52_erratas.h ****             uint32_t var2 = ((*(uint32_t *)0xF0000FE8ul) & 0x000000F0ul) >> 4;
1633:./Include/nrf52_erratas.h ****         #endif
1634:./Include/nrf52_erratas.h ****         #if defined (NRF52832_XXAA) || defined (DEVELOP_IN_NRF52832)\
1635:./Include/nrf52_erratas.h ****          || defined (NRF52832_XXAB) || defined (DEVELOP_IN_NRF52832)
1636:./Include/nrf52_erratas.h ****             if (var1 == 0x06)
1637:./Include/nrf52_erratas.h ****             {
1638:./Include/nrf52_erratas.h ****                 switch(var2)
1639:./Include/nrf52_erratas.h ****                 {
1640:./Include/nrf52_erratas.h ****                     case 0x03ul:
1641:./Include/nrf52_erratas.h ****                         return true;
1642:./Include/nrf52_erratas.h ****                     case 0x04ul:
1643:./Include/nrf52_erratas.h ****                         return false;
1644:./Include/nrf52_erratas.h ****                     case 0x05ul:
1645:./Include/nrf52_erratas.h ****                         return false;
1646:./Include/nrf52_erratas.h ****                     case 0x06ul:
1647:./Include/nrf52_erratas.h ****                         return false;
1648:./Include/nrf52_erratas.h ****                     case 0x07ul:
1649:./Include/nrf52_erratas.h ****                         return false;
1650:./Include/nrf52_erratas.h ****                     default:
1651:./Include/nrf52_erratas.h ****                         return false;
1652:./Include/nrf52_erratas.h ****                 }
1653:./Include/nrf52_erratas.h ****             }
1654:./Include/nrf52_erratas.h ****         #endif
1655:./Include/nrf52_erratas.h ****         return false;
1656:./Include/nrf52_erratas.h ****     #endif
1657:./Include/nrf52_erratas.h **** }
1658:./Include/nrf52_erratas.h **** 
1659:./Include/nrf52_erratas.h **** /* ========= Errata 33 ========= */
1660:./Include/nrf52_erratas.h **** #if    defined (NRF52832_XXAA) || defined (DEVELOP_IN_NRF52832) \
1661:./Include/nrf52_erratas.h ****     || defined (NRF52832_XXAB) || defined (DEVELOP_IN_NRF52832)
1662:./Include/nrf52_erratas.h ****     #define NRF52_ERRATA_33_PRESENT 1
1663:./Include/nrf52_erratas.h **** #else
1664:./Include/nrf52_erratas.h ****     #define NRF52_ERRATA_33_PRESENT 0
1665:./Include/nrf52_erratas.h **** #endif
1666:./Include/nrf52_erratas.h **** 
1667:./Include/nrf52_erratas.h **** #ifndef NRF52_ERRATA_33_ENABLE_WORKAROUND
1668:./Include/nrf52_erratas.h ****     #define NRF52_ERRATA_33_ENABLE_WORKAROUND NRF52_ERRATA_33_PRESENT
1669:./Include/nrf52_erratas.h **** #endif
1670:./Include/nrf52_erratas.h **** 
1671:./Include/nrf52_erratas.h **** static bool nrf52_errata_33(void)
1672:./Include/nrf52_erratas.h **** {
1673:./Include/nrf52_erratas.h ****     #ifndef NRF52_SERIES
1674:./Include/nrf52_erratas.h ****         return false;
1675:./Include/nrf52_erratas.h ****     #else
1676:./Include/nrf52_erratas.h ****         #if defined (NRF52832_XXAA) || defined (DEVELOP_IN_NRF52832)\
1677:./Include/nrf52_erratas.h ****          || defined (NRF52832_XXAB) || defined (DEVELOP_IN_NRF52832)
1678:./Include/nrf52_erratas.h ****             uint32_t var1 = ((*(uint32_t *)0xF0000FE0ul) & 0x000000FFul);
1679:./Include/nrf52_erratas.h ****             uint32_t var2 = ((*(uint32_t *)0xF0000FE8ul) & 0x000000F0ul) >> 4;
1680:./Include/nrf52_erratas.h ****         #endif
1681:./Include/nrf52_erratas.h ****         #if defined (NRF52832_XXAA) || defined (DEVELOP_IN_NRF52832)\
1682:./Include/nrf52_erratas.h ****          || defined (NRF52832_XXAB) || defined (DEVELOP_IN_NRF52832)
1683:./Include/nrf52_erratas.h ****             if (var1 == 0x06)
1684:./Include/nrf52_erratas.h ****             {
1685:./Include/nrf52_erratas.h ****                 switch(var2)
1686:./Include/nrf52_erratas.h ****                 {
1687:./Include/nrf52_erratas.h ****                     case 0x03ul:
1688:./Include/nrf52_erratas.h ****                         return true;
1689:./Include/nrf52_erratas.h ****                     case 0x04ul:
1690:./Include/nrf52_erratas.h ****                         return false;
1691:./Include/nrf52_erratas.h ****                     case 0x05ul:
1692:./Include/nrf52_erratas.h ****                         return false;
1693:./Include/nrf52_erratas.h ****                     case 0x06ul:
1694:./Include/nrf52_erratas.h ****                         return false;
1695:./Include/nrf52_erratas.h ****                     case 0x07ul:
1696:./Include/nrf52_erratas.h ****                         return false;
1697:./Include/nrf52_erratas.h ****                     default:
1698:./Include/nrf52_erratas.h ****                         return false;
1699:./Include/nrf52_erratas.h ****                 }
1700:./Include/nrf52_erratas.h ****             }
1701:./Include/nrf52_erratas.h ****         #endif
1702:./Include/nrf52_erratas.h ****         return false;
1703:./Include/nrf52_erratas.h ****     #endif
1704:./Include/nrf52_erratas.h **** }
1705:./Include/nrf52_erratas.h **** 
1706:./Include/nrf52_erratas.h **** /* ========= Errata 34 ========= */
1707:./Include/nrf52_erratas.h **** #if    defined (NRF52832_XXAA) || defined (DEVELOP_IN_NRF52832) \
1708:./Include/nrf52_erratas.h ****     || defined (NRF52832_XXAB) || defined (DEVELOP_IN_NRF52832)
1709:./Include/nrf52_erratas.h ****     #define NRF52_ERRATA_34_PRESENT 1
1710:./Include/nrf52_erratas.h **** #else
1711:./Include/nrf52_erratas.h ****     #define NRF52_ERRATA_34_PRESENT 0
1712:./Include/nrf52_erratas.h **** #endif
1713:./Include/nrf52_erratas.h **** 
1714:./Include/nrf52_erratas.h **** #ifndef NRF52_ERRATA_34_ENABLE_WORKAROUND
1715:./Include/nrf52_erratas.h ****     #define NRF52_ERRATA_34_ENABLE_WORKAROUND NRF52_ERRATA_34_PRESENT
1716:./Include/nrf52_erratas.h **** #endif
1717:./Include/nrf52_erratas.h **** 
1718:./Include/nrf52_erratas.h **** static bool nrf52_errata_34(void)
1719:./Include/nrf52_erratas.h **** {
1720:./Include/nrf52_erratas.h ****     #ifndef NRF52_SERIES
1721:./Include/nrf52_erratas.h ****         return false;
1722:./Include/nrf52_erratas.h ****     #else
1723:./Include/nrf52_erratas.h ****         #if defined (NRF52832_XXAA) || defined (DEVELOP_IN_NRF52832)\
1724:./Include/nrf52_erratas.h ****          || defined (NRF52832_XXAB) || defined (DEVELOP_IN_NRF52832)
1725:./Include/nrf52_erratas.h ****             uint32_t var1 = ((*(uint32_t *)0xF0000FE0ul) & 0x000000FFul);
1726:./Include/nrf52_erratas.h ****             uint32_t var2 = ((*(uint32_t *)0xF0000FE8ul) & 0x000000F0ul) >> 4;
1727:./Include/nrf52_erratas.h ****         #endif
1728:./Include/nrf52_erratas.h ****         #if defined (NRF52832_XXAA) || defined (DEVELOP_IN_NRF52832)\
1729:./Include/nrf52_erratas.h ****          || defined (NRF52832_XXAB) || defined (DEVELOP_IN_NRF52832)
1730:./Include/nrf52_erratas.h ****             if (var1 == 0x06)
1731:./Include/nrf52_erratas.h ****             {
1732:./Include/nrf52_erratas.h ****                 switch(var2)
1733:./Include/nrf52_erratas.h ****                 {
1734:./Include/nrf52_erratas.h ****                     case 0x03ul:
1735:./Include/nrf52_erratas.h ****                         return true;
1736:./Include/nrf52_erratas.h ****                     case 0x04ul:
1737:./Include/nrf52_erratas.h ****                         return false;
1738:./Include/nrf52_erratas.h ****                     case 0x05ul:
1739:./Include/nrf52_erratas.h ****                         return false;
1740:./Include/nrf52_erratas.h ****                     case 0x06ul:
1741:./Include/nrf52_erratas.h ****                         return false;
1742:./Include/nrf52_erratas.h ****                     case 0x07ul:
1743:./Include/nrf52_erratas.h ****                         return false;
1744:./Include/nrf52_erratas.h ****                     default:
1745:./Include/nrf52_erratas.h ****                         return false;
1746:./Include/nrf52_erratas.h ****                 }
1747:./Include/nrf52_erratas.h ****             }
1748:./Include/nrf52_erratas.h ****         #endif
1749:./Include/nrf52_erratas.h ****         return false;
1750:./Include/nrf52_erratas.h ****     #endif
1751:./Include/nrf52_erratas.h **** }
1752:./Include/nrf52_erratas.h **** 
1753:./Include/nrf52_erratas.h **** /* ========= Errata 35 ========= */
1754:./Include/nrf52_erratas.h **** #if    defined (NRF52832_XXAA) || defined (DEVELOP_IN_NRF52832) \
1755:./Include/nrf52_erratas.h ****     || defined (NRF52832_XXAB) || defined (DEVELOP_IN_NRF52832)
1756:./Include/nrf52_erratas.h ****     #define NRF52_ERRATA_35_PRESENT 1
1757:./Include/nrf52_erratas.h **** #else
1758:./Include/nrf52_erratas.h ****     #define NRF52_ERRATA_35_PRESENT 0
1759:./Include/nrf52_erratas.h **** #endif
1760:./Include/nrf52_erratas.h **** 
1761:./Include/nrf52_erratas.h **** #ifndef NRF52_ERRATA_35_ENABLE_WORKAROUND
1762:./Include/nrf52_erratas.h ****     #define NRF52_ERRATA_35_ENABLE_WORKAROUND NRF52_ERRATA_35_PRESENT
1763:./Include/nrf52_erratas.h **** #endif
1764:./Include/nrf52_erratas.h **** 
1765:./Include/nrf52_erratas.h **** static bool nrf52_errata_35(void)
1766:./Include/nrf52_erratas.h **** {
1767:./Include/nrf52_erratas.h ****     #ifndef NRF52_SERIES
1768:./Include/nrf52_erratas.h ****         return false;
1769:./Include/nrf52_erratas.h ****     #else
1770:./Include/nrf52_erratas.h ****         #if defined (NRF52832_XXAA) || defined (DEVELOP_IN_NRF52832)\
1771:./Include/nrf52_erratas.h ****          || defined (NRF52832_XXAB) || defined (DEVELOP_IN_NRF52832)
1772:./Include/nrf52_erratas.h ****             uint32_t var1 = ((*(uint32_t *)0xF0000FE0ul) & 0x000000FFul);
1773:./Include/nrf52_erratas.h ****             uint32_t var2 = ((*(uint32_t *)0xF0000FE8ul) & 0x000000F0ul) >> 4;
1774:./Include/nrf52_erratas.h ****         #endif
1775:./Include/nrf52_erratas.h ****         #if defined (NRF52832_XXAA) || defined (DEVELOP_IN_NRF52832)\
1776:./Include/nrf52_erratas.h ****          || defined (NRF52832_XXAB) || defined (DEVELOP_IN_NRF52832)
1777:./Include/nrf52_erratas.h ****             if (var1 == 0x06)
1778:./Include/nrf52_erratas.h ****             {
1779:./Include/nrf52_erratas.h ****                 switch(var2)
1780:./Include/nrf52_erratas.h ****                 {
1781:./Include/nrf52_erratas.h ****                     case 0x03ul:
1782:./Include/nrf52_erratas.h ****                         return true;
1783:./Include/nrf52_erratas.h ****                     case 0x04ul:
1784:./Include/nrf52_erratas.h ****                         return false;
1785:./Include/nrf52_erratas.h ****                     case 0x05ul:
1786:./Include/nrf52_erratas.h ****                         return false;
1787:./Include/nrf52_erratas.h ****                     case 0x06ul:
1788:./Include/nrf52_erratas.h ****                         return false;
1789:./Include/nrf52_erratas.h ****                     case 0x07ul:
1790:./Include/nrf52_erratas.h ****                         return false;
1791:./Include/nrf52_erratas.h ****                     default:
1792:./Include/nrf52_erratas.h ****                         return false;
1793:./Include/nrf52_erratas.h ****                 }
1794:./Include/nrf52_erratas.h ****             }
1795:./Include/nrf52_erratas.h ****         #endif
1796:./Include/nrf52_erratas.h ****         return false;
1797:./Include/nrf52_erratas.h ****     #endif
1798:./Include/nrf52_erratas.h **** }
1799:./Include/nrf52_erratas.h **** 
1800:./Include/nrf52_erratas.h **** /* ========= Errata 36 ========= */
1801:./Include/nrf52_erratas.h **** #if    defined (NRF52805_XXAA) || defined (DEVELOP_IN_NRF52805) \
1802:./Include/nrf52_erratas.h ****     || defined (NRF52810_XXAA) || defined (DEVELOP_IN_NRF52810) \
1803:./Include/nrf52_erratas.h ****     || defined (NRF52811_XXAA) || defined (DEVELOP_IN_NRF52811) \
1804:./Include/nrf52_erratas.h ****     || defined (NRF52820_XXAA) || defined (DEVELOP_IN_NRF52820) \
1805:./Include/nrf52_erratas.h ****     || defined (NRF52832_XXAA) || defined (DEVELOP_IN_NRF52832) \
1806:./Include/nrf52_erratas.h ****     || defined (NRF52832_XXAB) || defined (DEVELOP_IN_NRF52832) \
1807:./Include/nrf52_erratas.h ****     || defined (NRF52833_XXAA) || defined (DEVELOP_IN_NRF52833) \
1808:./Include/nrf52_erratas.h ****     || defined (NRF52840_XXAA) || defined (DEVELOP_IN_NRF52840)
1809:./Include/nrf52_erratas.h ****     #define NRF52_ERRATA_36_PRESENT 1
1810:./Include/nrf52_erratas.h **** #else
1811:./Include/nrf52_erratas.h ****     #define NRF52_ERRATA_36_PRESENT 0
1812:./Include/nrf52_erratas.h **** #endif
1813:./Include/nrf52_erratas.h **** 
1814:./Include/nrf52_erratas.h **** #ifndef NRF52_ERRATA_36_ENABLE_WORKAROUND
1815:./Include/nrf52_erratas.h ****     #define NRF52_ERRATA_36_ENABLE_WORKAROUND NRF52_ERRATA_36_PRESENT
1816:./Include/nrf52_erratas.h **** #endif
1817:./Include/nrf52_erratas.h **** 
1818:./Include/nrf52_erratas.h **** static bool nrf52_errata_36(void)
 149              		.loc 2 1818 13 view .LVU25
 150              	.LBB49:
1819:./Include/nrf52_erratas.h **** {
1820:./Include/nrf52_erratas.h ****     #ifndef NRF52_SERIES
1821:./Include/nrf52_erratas.h ****         return false;
1822:./Include/nrf52_erratas.h ****     #else
1823:./Include/nrf52_erratas.h ****         #if defined (NRF52832_XXAA) || defined (DEVELOP_IN_NRF52832)\
1824:./Include/nrf52_erratas.h ****          || defined (NRF52832_XXAB) || defined (DEVELOP_IN_NRF52832)
1825:./Include/nrf52_erratas.h ****             uint32_t var1;
1826:./Include/nrf52_erratas.h ****             uint32_t var2;
1827:./Include/nrf52_erratas.h **** 
1828:./Include/nrf52_erratas.h ****             if (*(uint32_t *)0x10000130ul == 0xFFFFFFFF)
1829:./Include/nrf52_erratas.h ****             {
1830:./Include/nrf52_erratas.h ****                 var1 = ((*(uint32_t *)0xF0000FE0ul) & 0x000000FFul);
1831:./Include/nrf52_erratas.h ****                 var2 = ((*(uint32_t *)0xF0000FE8ul) & 0x000000F0ul) >> 4;
1832:./Include/nrf52_erratas.h ****             }
1833:./Include/nrf52_erratas.h ****             else
1834:./Include/nrf52_erratas.h ****             {
1835:./Include/nrf52_erratas.h ****                 var1 = *(uint32_t *)0x10000130ul;
1836:./Include/nrf52_erratas.h ****                 var2 = *(uint32_t *)0x10000134ul;
1837:./Include/nrf52_erratas.h ****             }
1838:./Include/nrf52_erratas.h ****         #elif defined (NRF52805_XXAA) || defined (DEVELOP_IN_NRF52805)\
1839:./Include/nrf52_erratas.h ****          || defined (NRF52810_XXAA) || defined (DEVELOP_IN_NRF52810)\
1840:./Include/nrf52_erratas.h ****          || defined (NRF52811_XXAA) || defined (DEVELOP_IN_NRF52811)\
1841:./Include/nrf52_erratas.h ****          || defined (NRF52820_XXAA) || defined (DEVELOP_IN_NRF52820)\
1842:./Include/nrf52_erratas.h ****          || defined (NRF52833_XXAA) || defined (DEVELOP_IN_NRF52833)\
1843:./Include/nrf52_erratas.h ****          || defined (NRF52840_XXAA) || defined (DEVELOP_IN_NRF52840)
1844:./Include/nrf52_erratas.h ****             uint32_t var1 = *(uint32_t *)0x10000130ul;
 151              		.loc 2 1844 13 view .LVU26
 152              	.LVL1:
1845:./Include/nrf52_erratas.h ****             uint32_t var2 = *(uint32_t *)0x10000134ul;
 153              		.loc 2 1845 13 view .LVU27
1846:./Include/nrf52_erratas.h ****         #endif
1847:./Include/nrf52_erratas.h ****         #if defined (NRF52832_XXAA) || defined (DEVELOP_IN_NRF52832)\
1848:./Include/nrf52_erratas.h ****          || defined (NRF52832_XXAB) || defined (DEVELOP_IN_NRF52832)
1849:./Include/nrf52_erratas.h ****             if (var1 == 0x06)
1850:./Include/nrf52_erratas.h ****             {
1851:./Include/nrf52_erratas.h ****                 switch(var2)
1852:./Include/nrf52_erratas.h ****                 {
1853:./Include/nrf52_erratas.h ****                     case 0x03ul:
1854:./Include/nrf52_erratas.h ****                         return true;
1855:./Include/nrf52_erratas.h ****                     case 0x04ul:
1856:./Include/nrf52_erratas.h ****                         return true;
1857:./Include/nrf52_erratas.h ****                     case 0x05ul:
1858:./Include/nrf52_erratas.h ****                         return true;
1859:./Include/nrf52_erratas.h ****                     case 0x06ul:
1860:./Include/nrf52_erratas.h ****                         return true;
1861:./Include/nrf52_erratas.h ****                     case 0x07ul:
1862:./Include/nrf52_erratas.h ****                         return true;
1863:./Include/nrf52_erratas.h ****                     default:
1864:./Include/nrf52_erratas.h ****                         return true;
1865:./Include/nrf52_erratas.h ****                 }
1866:./Include/nrf52_erratas.h ****             }
1867:./Include/nrf52_erratas.h ****         #endif
1868:./Include/nrf52_erratas.h ****         #if defined (NRF52840_XXAA) || defined (DEVELOP_IN_NRF52840)
1869:./Include/nrf52_erratas.h ****             if (var1 == 0x08)
 154              		.loc 2 1869 13 view .LVU28
1844:./Include/nrf52_erratas.h ****             uint32_t var2 = *(uint32_t *)0x10000134ul;
 155              		.loc 2 1844 22 is_stmt 0 view .LVU29
 156 0000 4FF08053 		mov	r3, #268435456
 157              	.LBE49:
 158              	.LBE48:
 133:system_nrf52.c ****     /* Enable SWO trace functionality. If ENABLE_SWO is not defined, SWO pin will be used as GPIO (
 159              		.loc 1 133 1 view .LVU30
 160 0004 10B4     		push	{r4}
 161              		.cfi_def_cfa_offset 4
 162              		.cfi_offset 4, -4
 163              	.LBB52:
 164              	.LBB50:
 165              		.loc 2 1869 16 view .LVU31
 166 0006 D3F83021 		ldr	r2, [r3, #304]
 167 000a 082A     		cmp	r2, #8
 168 000c 20D0     		beq	.L36
 169              	.LVL2:
 170              	.L31:
 171              		.loc 2 1869 16 view .LVU32
 172              	.LBE50:
 173              	.LBE52:
 190:system_nrf52.c ****             NRF_CLOCK->EVENTS_DONE = 0ul;
 191:system_nrf52.c ****             NRF_CLOCK->EVENTS_CTTO = 0ul;
 192:system_nrf52.c ****             NRF_CLOCK->CTIV = 0ul;
 193:system_nrf52.c ****         }
 194:system_nrf52.c ****     #endif
 195:system_nrf52.c **** 
 196:system_nrf52.c ****     #if NRF52_ERRATA_37_ENABLE_WORKAROUND
 197:system_nrf52.c ****         /* Workaround for Errata 37 "RADIO: Encryption engine is slow by default" found at the Erra
 198:system_nrf52.c ****            for your device located at https://infocenter.nordicsemi.com/index.jsp  */
 199:system_nrf52.c ****         if (nrf52_errata_37()){
 200:system_nrf52.c ****             *(volatile uint32_t *)0x400005A0 = 0x3;
 201:system_nrf52.c ****         }
 202:system_nrf52.c ****     #endif
 203:system_nrf52.c **** 
 204:system_nrf52.c ****     #if NRF52_ERRATA_57_ENABLE_WORKAROUND
 205:system_nrf52.c ****         /* Workaround for Errata 57 "NFCT: NFC Modulation amplitude" found at the Errata document
 206:system_nrf52.c ****            for your device located at https://infocenter.nordicsemi.com/index.jsp  */
 207:system_nrf52.c ****         if (nrf52_errata_57()){
 208:system_nrf52.c ****             *(volatile uint32_t *)0x40005610 = 0x00000005;
 209:system_nrf52.c ****             *(volatile uint32_t *)0x40005688 = 0x00000001;
 210:system_nrf52.c ****             *(volatile uint32_t *)0x40005618 = 0x00000000;
 211:system_nrf52.c ****             *(volatile uint32_t *)0x40005614 = 0x0000003F;
 212:system_nrf52.c ****         }
 213:system_nrf52.c ****     #endif
 214:system_nrf52.c **** 
 215:system_nrf52.c ****     #if NRF52_ERRATA_66_ENABLE_WORKAROUND
 216:system_nrf52.c ****         /* Workaround for Errata 66 "TEMP: Linearity specification not met with default settings" f
 217:system_nrf52.c ****            for your device located at https://infocenter.nordicsemi.com/index.jsp  */
 218:system_nrf52.c ****         if (nrf52_errata_66()){
 219:system_nrf52.c ****             NRF_TEMP->A0 = NRF_FICR->TEMP.A0;
 220:system_nrf52.c ****             NRF_TEMP->A1 = NRF_FICR->TEMP.A1;
 221:system_nrf52.c ****             NRF_TEMP->A2 = NRF_FICR->TEMP.A2;
 222:system_nrf52.c ****             NRF_TEMP->A3 = NRF_FICR->TEMP.A3;
 223:system_nrf52.c ****             NRF_TEMP->A4 = NRF_FICR->TEMP.A4;
 224:system_nrf52.c ****             NRF_TEMP->A5 = NRF_FICR->TEMP.A5;
 225:system_nrf52.c ****             NRF_TEMP->B0 = NRF_FICR->TEMP.B0;
 226:system_nrf52.c ****             NRF_TEMP->B1 = NRF_FICR->TEMP.B1;
 227:system_nrf52.c ****             NRF_TEMP->B2 = NRF_FICR->TEMP.B2;
 228:system_nrf52.c ****             NRF_TEMP->B3 = NRF_FICR->TEMP.B3;
 229:system_nrf52.c ****             NRF_TEMP->B4 = NRF_FICR->TEMP.B4;
 230:system_nrf52.c ****             NRF_TEMP->B5 = NRF_FICR->TEMP.B5;
 231:system_nrf52.c ****             NRF_TEMP->T0 = NRF_FICR->TEMP.T0;
 232:system_nrf52.c ****             NRF_TEMP->T1 = NRF_FICR->TEMP.T1;
 233:system_nrf52.c ****             NRF_TEMP->T2 = NRF_FICR->TEMP.T2;
 234:system_nrf52.c ****             NRF_TEMP->T3 = NRF_FICR->TEMP.T3;
 235:system_nrf52.c ****             NRF_TEMP->T4 = NRF_FICR->TEMP.T4;
 236:system_nrf52.c ****         }
 237:system_nrf52.c ****     #endif
 238:system_nrf52.c **** 
 239:system_nrf52.c ****     #if NRF52_ERRATA_98_ENABLE_WORKAROUND
 240:system_nrf52.c ****         /* Workaround for Errata 98 "NFCT: Not able to communicate with the peer" found at the Erra
 241:system_nrf52.c ****            for your device located at https://infocenter.nordicsemi.com/index.jsp  */
 242:system_nrf52.c ****         if (nrf52_errata_98()){
 243:system_nrf52.c ****             *(volatile uint32_t *)0x4000568Cul = 0x00038148ul;
 244:system_nrf52.c ****         }
 245:system_nrf52.c ****     #endif
 246:system_nrf52.c **** 
 247:system_nrf52.c ****     #if NRF52_ERRATA_103_ENABLE_WORKAROUND && defined(CCM_MAXPACKETSIZE_MAXPACKETSIZE_Pos)
 248:system_nrf52.c ****         /* Workaround for Errata 103 "CCM: Wrong reset value of CCM MAXPACKETSIZE" found at the Err
 249:system_nrf52.c ****            for your device located at https://infocenter.nordicsemi.com/index.jsp  */
 250:system_nrf52.c ****         if (nrf52_errata_103()){
 251:system_nrf52.c ****             NRF_CCM->MAXPACKETSIZE = 0xFBul;
 252:system_nrf52.c ****         }
 253:system_nrf52.c ****     #endif
 254:system_nrf52.c **** 
 255:system_nrf52.c ****     #if NRF52_ERRATA_108_ENABLE_WORKAROUND
 256:system_nrf52.c ****         /* Workaround for Errata 108 "RAM: RAM content cannot be trusted upon waking up from System
 257:system_nrf52.c ****            for your device located at https://infocenter.nordicsemi.com/index.jsp  */
 258:system_nrf52.c ****         if (nrf52_errata_108()){
 259:system_nrf52.c ****             *(volatile uint32_t *)0x40000EE4ul = *(volatile uint32_t *)0x10000258ul & 0x0000004Ful;
 260:system_nrf52.c ****         }
 261:system_nrf52.c ****     #endif
 262:system_nrf52.c **** 
 263:system_nrf52.c ****     #if NRF52_ERRATA_115_ENABLE_WORKAROUND
 264:system_nrf52.c ****         /* Workaround for Errata 115 "RAM: RAM content cannot be trusted upon waking up from System
 265:system_nrf52.c ****            for your device located at https://infocenter.nordicsemi.com/index.jsp  */
 266:system_nrf52.c ****         if (nrf52_errata_115()){
 267:system_nrf52.c ****             *(volatile uint32_t *)0x40000EE4ul = (*(volatile uint32_t *)0x40000EE4ul & 0xFFFFFFF0ul
 268:system_nrf52.c ****         }
 269:system_nrf52.c ****     #endif
 270:system_nrf52.c **** 
 271:system_nrf52.c ****     #if NRF52_ERRATA_120_ENABLE_WORKAROUND
 272:system_nrf52.c ****         /* Workaround for Errata 120 "QSPI: Data read or written is corrupted" found at the Errata 
 273:system_nrf52.c ****            for your device located at https://infocenter.nordicsemi.com/index.jsp  */
 274:system_nrf52.c ****         if (nrf52_errata_120()){
 275:system_nrf52.c ****             *(volatile uint32_t *)0x40029640ul = 0x200ul;
 276:system_nrf52.c ****         }
 277:system_nrf52.c ****     #endif
 278:system_nrf52.c **** 
 279:system_nrf52.c ****     #if NRF52_ERRATA_136_ENABLE_WORKAROUND
 280:system_nrf52.c ****         /* Workaround for Errata 136 "System: Bits in RESETREAS are set when they should not be" fo
 281:system_nrf52.c ****            for your device located at https://infocenter.nordicsemi.com/index.jsp  */
 282:system_nrf52.c ****         if (nrf52_errata_136()){
 283:system_nrf52.c ****             if (NRF_POWER->RESETREAS & POWER_RESETREAS_RESETPIN_Msk){
 284:system_nrf52.c ****                 NRF_POWER->RESETREAS =  ~POWER_RESETREAS_RESETPIN_Msk;
 285:system_nrf52.c ****             }
 286:system_nrf52.c ****         }
 287:system_nrf52.c ****     #endif
 288:system_nrf52.c **** 
 289:system_nrf52.c ****     #if NRF52_ERRATA_182_ENABLE_WORKAROUND
 290:system_nrf52.c ****         /* Workaround for Errata 182 "RADIO: Fixes for anomalies #102, #106, and #107 do not take e
 291:system_nrf52.c ****            for your device located at https://infocenter.nordicsemi.com/index.jsp  */
 292:system_nrf52.c ****         if (nrf52_errata_182()){
 293:system_nrf52.c ****             *(volatile uint32_t *) 0x4000173Cul |= (0x1ul << 10ul);
 294:system_nrf52.c ****         }
 295:system_nrf52.c ****     #endif
 296:system_nrf52.c **** 
 297:system_nrf52.c ****     #if NRF52_ERRATA_217_ENABLE_WORKAROUND
 298:system_nrf52.c ****         /* Workaround for Errata 217 "RAM: RAM content cannot be trusted upon waking up from System
 299:system_nrf52.c ****            for your device located at https://infocenter.nordicsemi.com/index.jsp  */
 300:system_nrf52.c ****         if (nrf52_errata_217()){
 301:system_nrf52.c ****             *(volatile uint32_t *)0x40000EE4ul |= 0x0000000Ful;
 302:system_nrf52.c ****         }
 303:system_nrf52.c ****     #endif
 304:system_nrf52.c **** 
 305:system_nrf52.c ****     /* Enable the FPU if the compiler used floating point unit instructions. __FPU_USED is a MACRO 
 306:system_nrf52.c ****      * compiler. Since the FPU consumes energy, remember to disable FPU use in the compiler if floa
 307:system_nrf52.c ****      * operations are not used in your code. */
 308:system_nrf52.c ****     #if (__FPU_USED == 1)
 309:system_nrf52.c ****         SCB->CPACR |= (3UL << 20ul) | (3UL << 22ul);
 174              		.loc 1 309 9 is_stmt 1 view .LVU33
 175              		.loc 1 309 12 is_stmt 0 view .LVU34
 176 000e 4A4A     		ldr	r2, .L39
 177 0010 D2F88830 		ldr	r3, [r2, #136]
 178              		.loc 1 309 20 view .LVU35
 179 0014 43F47003 		orr	r3, r3, #15728640
 180 0018 C2F88830 		str	r3, [r2, #136]
 310:system_nrf52.c ****         __DSB();
 181              		.loc 1 310 9 is_stmt 1 view .LVU36
 182              	.LBB53:
 183              	.LBI53:
 184              		.file 3 "./CMSIS_5/CMSIS/Core/Include/cmsis_gcc.h"
   1:./CMSIS_5/CMSIS/Core/Include/cmsis_gcc.h **** /**************************************************************************//**
   2:./CMSIS_5/CMSIS/Core/Include/cmsis_gcc.h ****  * @file     cmsis_gcc.h
   3:./CMSIS_5/CMSIS/Core/Include/cmsis_gcc.h ****  * @brief    CMSIS compiler GCC header file
   4:./CMSIS_5/CMSIS/Core/Include/cmsis_gcc.h ****  * @version  V5.4.2
   5:./CMSIS_5/CMSIS/Core/Include/cmsis_gcc.h ****  * @date     17. December 2022
   6:./CMSIS_5/CMSIS/Core/Include/cmsis_gcc.h ****  ******************************************************************************/
   7:./CMSIS_5/CMSIS/Core/Include/cmsis_gcc.h **** /*
   8:./CMSIS_5/CMSIS/Core/Include/cmsis_gcc.h ****  * Copyright (c) 2009-2021 Arm Limited. All rights reserved.
   9:./CMSIS_5/CMSIS/Core/Include/cmsis_gcc.h ****  *
  10:./CMSIS_5/CMSIS/Core/Include/cmsis_gcc.h ****  * SPDX-License-Identifier: Apache-2.0
  11:./CMSIS_5/CMSIS/Core/Include/cmsis_gcc.h ****  *
  12:./CMSIS_5/CMSIS/Core/Include/cmsis_gcc.h ****  * Licensed under the Apache License, Version 2.0 (the License); you may
  13:./CMSIS_5/CMSIS/Core/Include/cmsis_gcc.h ****  * not use this file except in compliance with the License.
  14:./CMSIS_5/CMSIS/Core/Include/cmsis_gcc.h ****  * You may obtain a copy of the License at
  15:./CMSIS_5/CMSIS/Core/Include/cmsis_gcc.h ****  *
  16:./CMSIS_5/CMSIS/Core/Include/cmsis_gcc.h ****  * www.apache.org/licenses/LICENSE-2.0
  17:./CMSIS_5/CMSIS/Core/Include/cmsis_gcc.h ****  *
  18:./CMSIS_5/CMSIS/Core/Include/cmsis_gcc.h ****  * Unless required by applicable law or agreed to in writing, software
  19:./CMSIS_5/CMSIS/Core/Include/cmsis_gcc.h ****  * distributed under the License is distributed on an AS IS BASIS, WITHOUT
  20:./CMSIS_5/CMSIS/Core/Include/cmsis_gcc.h ****  * WARRANTIES OR CONDITIONS OF ANY KIND, either express or implied.
  21:./CMSIS_5/CMSIS/Core/Include/cmsis_gcc.h ****  * See the License for the specific language governing permissions and
  22:./CMSIS_5/CMSIS/Core/Include/cmsis_gcc.h ****  * limitations under the License.
  23:./CMSIS_5/CMSIS/Core/Include/cmsis_gcc.h ****  */
  24:./CMSIS_5/CMSIS/Core/Include/cmsis_gcc.h **** 
  25:./CMSIS_5/CMSIS/Core/Include/cmsis_gcc.h **** #ifndef __CMSIS_GCC_H
  26:./CMSIS_5/CMSIS/Core/Include/cmsis_gcc.h **** #define __CMSIS_GCC_H
  27:./CMSIS_5/CMSIS/Core/Include/cmsis_gcc.h **** 
  28:./CMSIS_5/CMSIS/Core/Include/cmsis_gcc.h **** /* ignore some GCC warnings */
  29:./CMSIS_5/CMSIS/Core/Include/cmsis_gcc.h **** #pragma GCC diagnostic push
  30:./CMSIS_5/CMSIS/Core/Include/cmsis_gcc.h **** #pragma GCC diagnostic ignored "-Wsign-conversion"
  31:./CMSIS_5/CMSIS/Core/Include/cmsis_gcc.h **** #pragma GCC diagnostic ignored "-Wconversion"
  32:./CMSIS_5/CMSIS/Core/Include/cmsis_gcc.h **** #pragma GCC diagnostic ignored "-Wunused-parameter"
  33:./CMSIS_5/CMSIS/Core/Include/cmsis_gcc.h **** 
  34:./CMSIS_5/CMSIS/Core/Include/cmsis_gcc.h **** /* Fallback for __has_builtin */
  35:./CMSIS_5/CMSIS/Core/Include/cmsis_gcc.h **** #ifndef __has_builtin
  36:./CMSIS_5/CMSIS/Core/Include/cmsis_gcc.h ****   #define __has_builtin(x) (0)
  37:./CMSIS_5/CMSIS/Core/Include/cmsis_gcc.h **** #endif
  38:./CMSIS_5/CMSIS/Core/Include/cmsis_gcc.h **** 
  39:./CMSIS_5/CMSIS/Core/Include/cmsis_gcc.h **** /* CMSIS compiler specific defines */
  40:./CMSIS_5/CMSIS/Core/Include/cmsis_gcc.h **** #ifndef   __ASM
  41:./CMSIS_5/CMSIS/Core/Include/cmsis_gcc.h ****   #define __ASM                                  __asm
  42:./CMSIS_5/CMSIS/Core/Include/cmsis_gcc.h **** #endif
  43:./CMSIS_5/CMSIS/Core/Include/cmsis_gcc.h **** #ifndef   __INLINE
  44:./CMSIS_5/CMSIS/Core/Include/cmsis_gcc.h ****   #define __INLINE                               inline
  45:./CMSIS_5/CMSIS/Core/Include/cmsis_gcc.h **** #endif
  46:./CMSIS_5/CMSIS/Core/Include/cmsis_gcc.h **** #ifndef   __STATIC_INLINE
  47:./CMSIS_5/CMSIS/Core/Include/cmsis_gcc.h ****   #define __STATIC_INLINE                        static inline
  48:./CMSIS_5/CMSIS/Core/Include/cmsis_gcc.h **** #endif
  49:./CMSIS_5/CMSIS/Core/Include/cmsis_gcc.h **** #ifndef   __STATIC_FORCEINLINE
  50:./CMSIS_5/CMSIS/Core/Include/cmsis_gcc.h ****   #define __STATIC_FORCEINLINE                   __attribute__((always_inline)) static inline
  51:./CMSIS_5/CMSIS/Core/Include/cmsis_gcc.h **** #endif
  52:./CMSIS_5/CMSIS/Core/Include/cmsis_gcc.h **** #ifndef   __NO_RETURN
  53:./CMSIS_5/CMSIS/Core/Include/cmsis_gcc.h ****   #define __NO_RETURN                            __attribute__((__noreturn__))
  54:./CMSIS_5/CMSIS/Core/Include/cmsis_gcc.h **** #endif
  55:./CMSIS_5/CMSIS/Core/Include/cmsis_gcc.h **** #ifndef   __USED
  56:./CMSIS_5/CMSIS/Core/Include/cmsis_gcc.h ****   #define __USED                                 __attribute__((used))
  57:./CMSIS_5/CMSIS/Core/Include/cmsis_gcc.h **** #endif
  58:./CMSIS_5/CMSIS/Core/Include/cmsis_gcc.h **** #ifndef   __WEAK
  59:./CMSIS_5/CMSIS/Core/Include/cmsis_gcc.h ****   #define __WEAK                                 __attribute__((weak))
  60:./CMSIS_5/CMSIS/Core/Include/cmsis_gcc.h **** #endif
  61:./CMSIS_5/CMSIS/Core/Include/cmsis_gcc.h **** #ifndef   __PACKED
  62:./CMSIS_5/CMSIS/Core/Include/cmsis_gcc.h ****   #define __PACKED                               __attribute__((packed, aligned(1)))
  63:./CMSIS_5/CMSIS/Core/Include/cmsis_gcc.h **** #endif
  64:./CMSIS_5/CMSIS/Core/Include/cmsis_gcc.h **** #ifndef   __PACKED_STRUCT
  65:./CMSIS_5/CMSIS/Core/Include/cmsis_gcc.h ****   #define __PACKED_STRUCT                        struct __attribute__((packed, aligned(1)))
  66:./CMSIS_5/CMSIS/Core/Include/cmsis_gcc.h **** #endif
  67:./CMSIS_5/CMSIS/Core/Include/cmsis_gcc.h **** #ifndef   __PACKED_UNION
  68:./CMSIS_5/CMSIS/Core/Include/cmsis_gcc.h ****   #define __PACKED_UNION                         union __attribute__((packed, aligned(1)))
  69:./CMSIS_5/CMSIS/Core/Include/cmsis_gcc.h **** #endif
  70:./CMSIS_5/CMSIS/Core/Include/cmsis_gcc.h **** #ifndef   __UNALIGNED_UINT32        /* deprecated */
  71:./CMSIS_5/CMSIS/Core/Include/cmsis_gcc.h ****   #pragma GCC diagnostic push
  72:./CMSIS_5/CMSIS/Core/Include/cmsis_gcc.h ****   #pragma GCC diagnostic ignored "-Wpacked"
  73:./CMSIS_5/CMSIS/Core/Include/cmsis_gcc.h ****   #pragma GCC diagnostic ignored "-Wattributes"
  74:./CMSIS_5/CMSIS/Core/Include/cmsis_gcc.h ****   struct __attribute__((packed)) T_UINT32 { uint32_t v; };
  75:./CMSIS_5/CMSIS/Core/Include/cmsis_gcc.h ****   #pragma GCC diagnostic pop
  76:./CMSIS_5/CMSIS/Core/Include/cmsis_gcc.h ****   #define __UNALIGNED_UINT32(x)                  (((struct T_UINT32 *)(x))->v)
  77:./CMSIS_5/CMSIS/Core/Include/cmsis_gcc.h **** #endif
  78:./CMSIS_5/CMSIS/Core/Include/cmsis_gcc.h **** #ifndef   __UNALIGNED_UINT16_WRITE
  79:./CMSIS_5/CMSIS/Core/Include/cmsis_gcc.h ****   #pragma GCC diagnostic push
  80:./CMSIS_5/CMSIS/Core/Include/cmsis_gcc.h ****   #pragma GCC diagnostic ignored "-Wpacked"
  81:./CMSIS_5/CMSIS/Core/Include/cmsis_gcc.h ****   #pragma GCC diagnostic ignored "-Wattributes"
  82:./CMSIS_5/CMSIS/Core/Include/cmsis_gcc.h ****   __PACKED_STRUCT T_UINT16_WRITE { uint16_t v; };
  83:./CMSIS_5/CMSIS/Core/Include/cmsis_gcc.h ****   #pragma GCC diagnostic pop
  84:./CMSIS_5/CMSIS/Core/Include/cmsis_gcc.h ****   #define __UNALIGNED_UINT16_WRITE(addr, val)    (void)((((struct T_UINT16_WRITE *)(void *)(addr))-
  85:./CMSIS_5/CMSIS/Core/Include/cmsis_gcc.h **** #endif
  86:./CMSIS_5/CMSIS/Core/Include/cmsis_gcc.h **** #ifndef   __UNALIGNED_UINT16_READ
  87:./CMSIS_5/CMSIS/Core/Include/cmsis_gcc.h ****   #pragma GCC diagnostic push
  88:./CMSIS_5/CMSIS/Core/Include/cmsis_gcc.h ****   #pragma GCC diagnostic ignored "-Wpacked"
  89:./CMSIS_5/CMSIS/Core/Include/cmsis_gcc.h ****   #pragma GCC diagnostic ignored "-Wattributes"
  90:./CMSIS_5/CMSIS/Core/Include/cmsis_gcc.h ****   __PACKED_STRUCT T_UINT16_READ { uint16_t v; };
  91:./CMSIS_5/CMSIS/Core/Include/cmsis_gcc.h ****   #pragma GCC diagnostic pop
  92:./CMSIS_5/CMSIS/Core/Include/cmsis_gcc.h ****   #define __UNALIGNED_UINT16_READ(addr)          (((const struct T_UINT16_READ *)(const void *)(add
  93:./CMSIS_5/CMSIS/Core/Include/cmsis_gcc.h **** #endif
  94:./CMSIS_5/CMSIS/Core/Include/cmsis_gcc.h **** #ifndef   __UNALIGNED_UINT32_WRITE
  95:./CMSIS_5/CMSIS/Core/Include/cmsis_gcc.h ****   #pragma GCC diagnostic push
  96:./CMSIS_5/CMSIS/Core/Include/cmsis_gcc.h ****   #pragma GCC diagnostic ignored "-Wpacked"
  97:./CMSIS_5/CMSIS/Core/Include/cmsis_gcc.h ****   #pragma GCC diagnostic ignored "-Wattributes"
  98:./CMSIS_5/CMSIS/Core/Include/cmsis_gcc.h ****   __PACKED_STRUCT T_UINT32_WRITE { uint32_t v; };
  99:./CMSIS_5/CMSIS/Core/Include/cmsis_gcc.h ****   #pragma GCC diagnostic pop
 100:./CMSIS_5/CMSIS/Core/Include/cmsis_gcc.h ****   #define __UNALIGNED_UINT32_WRITE(addr, val)    (void)((((struct T_UINT32_WRITE *)(void *)(addr))-
 101:./CMSIS_5/CMSIS/Core/Include/cmsis_gcc.h **** #endif
 102:./CMSIS_5/CMSIS/Core/Include/cmsis_gcc.h **** #ifndef   __UNALIGNED_UINT32_READ
 103:./CMSIS_5/CMSIS/Core/Include/cmsis_gcc.h ****   #pragma GCC diagnostic push
 104:./CMSIS_5/CMSIS/Core/Include/cmsis_gcc.h ****   #pragma GCC diagnostic ignored "-Wpacked"
 105:./CMSIS_5/CMSIS/Core/Include/cmsis_gcc.h ****   #pragma GCC diagnostic ignored "-Wattributes"
 106:./CMSIS_5/CMSIS/Core/Include/cmsis_gcc.h ****   __PACKED_STRUCT T_UINT32_READ { uint32_t v; };
 107:./CMSIS_5/CMSIS/Core/Include/cmsis_gcc.h ****   #pragma GCC diagnostic pop
 108:./CMSIS_5/CMSIS/Core/Include/cmsis_gcc.h ****   #define __UNALIGNED_UINT32_READ(addr)          (((const struct T_UINT32_READ *)(const void *)(add
 109:./CMSIS_5/CMSIS/Core/Include/cmsis_gcc.h **** #endif
 110:./CMSIS_5/CMSIS/Core/Include/cmsis_gcc.h **** #ifndef   __ALIGNED
 111:./CMSIS_5/CMSIS/Core/Include/cmsis_gcc.h ****   #define __ALIGNED(x)                           __attribute__((aligned(x)))
 112:./CMSIS_5/CMSIS/Core/Include/cmsis_gcc.h **** #endif
 113:./CMSIS_5/CMSIS/Core/Include/cmsis_gcc.h **** #ifndef   __RESTRICT
 114:./CMSIS_5/CMSIS/Core/Include/cmsis_gcc.h ****   #define __RESTRICT                             __restrict
 115:./CMSIS_5/CMSIS/Core/Include/cmsis_gcc.h **** #endif
 116:./CMSIS_5/CMSIS/Core/Include/cmsis_gcc.h **** #ifndef   __COMPILER_BARRIER
 117:./CMSIS_5/CMSIS/Core/Include/cmsis_gcc.h ****   #define __COMPILER_BARRIER()                   __ASM volatile("":::"memory")
 118:./CMSIS_5/CMSIS/Core/Include/cmsis_gcc.h **** #endif
 119:./CMSIS_5/CMSIS/Core/Include/cmsis_gcc.h **** #ifndef __NO_INIT
 120:./CMSIS_5/CMSIS/Core/Include/cmsis_gcc.h ****   #define __NO_INIT                              __attribute__ ((section (".bss.noinit")))
 121:./CMSIS_5/CMSIS/Core/Include/cmsis_gcc.h **** #endif
 122:./CMSIS_5/CMSIS/Core/Include/cmsis_gcc.h **** #ifndef __ALIAS
 123:./CMSIS_5/CMSIS/Core/Include/cmsis_gcc.h ****   #define __ALIAS(x)                             __attribute__ ((alias(x)))
 124:./CMSIS_5/CMSIS/Core/Include/cmsis_gcc.h **** #endif
 125:./CMSIS_5/CMSIS/Core/Include/cmsis_gcc.h **** 
 126:./CMSIS_5/CMSIS/Core/Include/cmsis_gcc.h **** /* #########################  Startup and Lowlevel Init  ######################## */
 127:./CMSIS_5/CMSIS/Core/Include/cmsis_gcc.h **** 
 128:./CMSIS_5/CMSIS/Core/Include/cmsis_gcc.h **** #ifndef __PROGRAM_START
 129:./CMSIS_5/CMSIS/Core/Include/cmsis_gcc.h **** 
 130:./CMSIS_5/CMSIS/Core/Include/cmsis_gcc.h **** /**
 131:./CMSIS_5/CMSIS/Core/Include/cmsis_gcc.h ****   \brief   Initializes data and bss sections
 132:./CMSIS_5/CMSIS/Core/Include/cmsis_gcc.h ****   \details This default implementations initialized all data and additional bss
 133:./CMSIS_5/CMSIS/Core/Include/cmsis_gcc.h ****            sections relying on .copy.table and .zero.table specified properly
 134:./CMSIS_5/CMSIS/Core/Include/cmsis_gcc.h ****            in the used linker script.
 135:./CMSIS_5/CMSIS/Core/Include/cmsis_gcc.h **** 
 136:./CMSIS_5/CMSIS/Core/Include/cmsis_gcc.h ****  */
 137:./CMSIS_5/CMSIS/Core/Include/cmsis_gcc.h **** __STATIC_FORCEINLINE __NO_RETURN void __cmsis_start(void)
 138:./CMSIS_5/CMSIS/Core/Include/cmsis_gcc.h **** {
 139:./CMSIS_5/CMSIS/Core/Include/cmsis_gcc.h ****   extern void _start(void) __NO_RETURN;
 140:./CMSIS_5/CMSIS/Core/Include/cmsis_gcc.h **** 
 141:./CMSIS_5/CMSIS/Core/Include/cmsis_gcc.h ****   typedef struct __copy_table {
 142:./CMSIS_5/CMSIS/Core/Include/cmsis_gcc.h ****     uint32_t const* src;
 143:./CMSIS_5/CMSIS/Core/Include/cmsis_gcc.h ****     uint32_t* dest;
 144:./CMSIS_5/CMSIS/Core/Include/cmsis_gcc.h ****     uint32_t  wlen;
 145:./CMSIS_5/CMSIS/Core/Include/cmsis_gcc.h ****   } __copy_table_t;
 146:./CMSIS_5/CMSIS/Core/Include/cmsis_gcc.h **** 
 147:./CMSIS_5/CMSIS/Core/Include/cmsis_gcc.h ****   typedef struct __zero_table {
 148:./CMSIS_5/CMSIS/Core/Include/cmsis_gcc.h ****     uint32_t* dest;
 149:./CMSIS_5/CMSIS/Core/Include/cmsis_gcc.h ****     uint32_t  wlen;
 150:./CMSIS_5/CMSIS/Core/Include/cmsis_gcc.h ****   } __zero_table_t;
 151:./CMSIS_5/CMSIS/Core/Include/cmsis_gcc.h **** 
 152:./CMSIS_5/CMSIS/Core/Include/cmsis_gcc.h ****   extern const __copy_table_t __copy_table_start__;
 153:./CMSIS_5/CMSIS/Core/Include/cmsis_gcc.h ****   extern const __copy_table_t __copy_table_end__;
 154:./CMSIS_5/CMSIS/Core/Include/cmsis_gcc.h ****   extern const __zero_table_t __zero_table_start__;
 155:./CMSIS_5/CMSIS/Core/Include/cmsis_gcc.h ****   extern const __zero_table_t __zero_table_end__;
 156:./CMSIS_5/CMSIS/Core/Include/cmsis_gcc.h **** 
 157:./CMSIS_5/CMSIS/Core/Include/cmsis_gcc.h ****   for (__copy_table_t const* pTable = &__copy_table_start__; pTable < &__copy_table_end__; ++pTable
 158:./CMSIS_5/CMSIS/Core/Include/cmsis_gcc.h ****     for(uint32_t i=0u; i<pTable->wlen; ++i) {
 159:./CMSIS_5/CMSIS/Core/Include/cmsis_gcc.h ****       pTable->dest[i] = pTable->src[i];
 160:./CMSIS_5/CMSIS/Core/Include/cmsis_gcc.h ****     }
 161:./CMSIS_5/CMSIS/Core/Include/cmsis_gcc.h ****   }
 162:./CMSIS_5/CMSIS/Core/Include/cmsis_gcc.h **** 
 163:./CMSIS_5/CMSIS/Core/Include/cmsis_gcc.h ****   for (__zero_table_t const* pTable = &__zero_table_start__; pTable < &__zero_table_end__; ++pTable
 164:./CMSIS_5/CMSIS/Core/Include/cmsis_gcc.h ****     for(uint32_t i=0u; i<pTable->wlen; ++i) {
 165:./CMSIS_5/CMSIS/Core/Include/cmsis_gcc.h ****       pTable->dest[i] = 0u;
 166:./CMSIS_5/CMSIS/Core/Include/cmsis_gcc.h ****     }
 167:./CMSIS_5/CMSIS/Core/Include/cmsis_gcc.h ****   }
 168:./CMSIS_5/CMSIS/Core/Include/cmsis_gcc.h **** 
 169:./CMSIS_5/CMSIS/Core/Include/cmsis_gcc.h ****   _start();
 170:./CMSIS_5/CMSIS/Core/Include/cmsis_gcc.h **** }
 171:./CMSIS_5/CMSIS/Core/Include/cmsis_gcc.h **** 
 172:./CMSIS_5/CMSIS/Core/Include/cmsis_gcc.h **** #define __PROGRAM_START           __cmsis_start
 173:./CMSIS_5/CMSIS/Core/Include/cmsis_gcc.h **** #endif
 174:./CMSIS_5/CMSIS/Core/Include/cmsis_gcc.h **** 
 175:./CMSIS_5/CMSIS/Core/Include/cmsis_gcc.h **** #ifndef __INITIAL_SP
 176:./CMSIS_5/CMSIS/Core/Include/cmsis_gcc.h **** #define __INITIAL_SP              __StackTop
 177:./CMSIS_5/CMSIS/Core/Include/cmsis_gcc.h **** #endif
 178:./CMSIS_5/CMSIS/Core/Include/cmsis_gcc.h **** 
 179:./CMSIS_5/CMSIS/Core/Include/cmsis_gcc.h **** #ifndef __STACK_LIMIT
 180:./CMSIS_5/CMSIS/Core/Include/cmsis_gcc.h **** #define __STACK_LIMIT             __StackLimit
 181:./CMSIS_5/CMSIS/Core/Include/cmsis_gcc.h **** #endif
 182:./CMSIS_5/CMSIS/Core/Include/cmsis_gcc.h **** 
 183:./CMSIS_5/CMSIS/Core/Include/cmsis_gcc.h **** #ifndef __VECTOR_TABLE
 184:./CMSIS_5/CMSIS/Core/Include/cmsis_gcc.h **** #define __VECTOR_TABLE            __Vectors
 185:./CMSIS_5/CMSIS/Core/Include/cmsis_gcc.h **** #endif
 186:./CMSIS_5/CMSIS/Core/Include/cmsis_gcc.h **** 
 187:./CMSIS_5/CMSIS/Core/Include/cmsis_gcc.h **** #ifndef __VECTOR_TABLE_ATTRIBUTE
 188:./CMSIS_5/CMSIS/Core/Include/cmsis_gcc.h **** #define __VECTOR_TABLE_ATTRIBUTE  __attribute__((used, section(".vectors")))
 189:./CMSIS_5/CMSIS/Core/Include/cmsis_gcc.h **** #endif
 190:./CMSIS_5/CMSIS/Core/Include/cmsis_gcc.h **** 
 191:./CMSIS_5/CMSIS/Core/Include/cmsis_gcc.h **** #if defined (__ARM_FEATURE_CMSE) && (__ARM_FEATURE_CMSE == 3U)
 192:./CMSIS_5/CMSIS/Core/Include/cmsis_gcc.h **** #ifndef __STACK_SEAL
 193:./CMSIS_5/CMSIS/Core/Include/cmsis_gcc.h **** #define __STACK_SEAL              __StackSeal
 194:./CMSIS_5/CMSIS/Core/Include/cmsis_gcc.h **** #endif
 195:./CMSIS_5/CMSIS/Core/Include/cmsis_gcc.h **** 
 196:./CMSIS_5/CMSIS/Core/Include/cmsis_gcc.h **** #ifndef __TZ_STACK_SEAL_SIZE
 197:./CMSIS_5/CMSIS/Core/Include/cmsis_gcc.h **** #define __TZ_STACK_SEAL_SIZE      8U
 198:./CMSIS_5/CMSIS/Core/Include/cmsis_gcc.h **** #endif
 199:./CMSIS_5/CMSIS/Core/Include/cmsis_gcc.h **** 
 200:./CMSIS_5/CMSIS/Core/Include/cmsis_gcc.h **** #ifndef __TZ_STACK_SEAL_VALUE
 201:./CMSIS_5/CMSIS/Core/Include/cmsis_gcc.h **** #define __TZ_STACK_SEAL_VALUE     0xFEF5EDA5FEF5EDA5ULL
 202:./CMSIS_5/CMSIS/Core/Include/cmsis_gcc.h **** #endif
 203:./CMSIS_5/CMSIS/Core/Include/cmsis_gcc.h **** 
 204:./CMSIS_5/CMSIS/Core/Include/cmsis_gcc.h **** 
 205:./CMSIS_5/CMSIS/Core/Include/cmsis_gcc.h **** __STATIC_FORCEINLINE void __TZ_set_STACKSEAL_S (uint32_t* stackTop) {
 206:./CMSIS_5/CMSIS/Core/Include/cmsis_gcc.h ****   *((uint64_t *)stackTop) = __TZ_STACK_SEAL_VALUE;
 207:./CMSIS_5/CMSIS/Core/Include/cmsis_gcc.h **** }
 208:./CMSIS_5/CMSIS/Core/Include/cmsis_gcc.h **** #endif
 209:./CMSIS_5/CMSIS/Core/Include/cmsis_gcc.h **** 
 210:./CMSIS_5/CMSIS/Core/Include/cmsis_gcc.h **** 
 211:./CMSIS_5/CMSIS/Core/Include/cmsis_gcc.h **** /* ##########################  Core Instruction Access  ######################### */
 212:./CMSIS_5/CMSIS/Core/Include/cmsis_gcc.h **** /** \defgroup CMSIS_Core_InstructionInterface CMSIS Core Instruction Interface
 213:./CMSIS_5/CMSIS/Core/Include/cmsis_gcc.h ****   Access to dedicated instructions
 214:./CMSIS_5/CMSIS/Core/Include/cmsis_gcc.h ****   @{
 215:./CMSIS_5/CMSIS/Core/Include/cmsis_gcc.h **** */
 216:./CMSIS_5/CMSIS/Core/Include/cmsis_gcc.h **** 
 217:./CMSIS_5/CMSIS/Core/Include/cmsis_gcc.h **** /* Define macros for porting to both thumb1 and thumb2.
 218:./CMSIS_5/CMSIS/Core/Include/cmsis_gcc.h ****  * For thumb1, use low register (r0-r7), specified by constraint "l"
 219:./CMSIS_5/CMSIS/Core/Include/cmsis_gcc.h ****  * Otherwise, use general registers, specified by constraint "r" */
 220:./CMSIS_5/CMSIS/Core/Include/cmsis_gcc.h **** #if defined (__thumb__) && !defined (__thumb2__)
 221:./CMSIS_5/CMSIS/Core/Include/cmsis_gcc.h **** #define __CMSIS_GCC_OUT_REG(r) "=l" (r)
 222:./CMSIS_5/CMSIS/Core/Include/cmsis_gcc.h **** #define __CMSIS_GCC_RW_REG(r) "+l" (r)
 223:./CMSIS_5/CMSIS/Core/Include/cmsis_gcc.h **** #define __CMSIS_GCC_USE_REG(r) "l" (r)
 224:./CMSIS_5/CMSIS/Core/Include/cmsis_gcc.h **** #else
 225:./CMSIS_5/CMSIS/Core/Include/cmsis_gcc.h **** #define __CMSIS_GCC_OUT_REG(r) "=r" (r)
 226:./CMSIS_5/CMSIS/Core/Include/cmsis_gcc.h **** #define __CMSIS_GCC_RW_REG(r) "+r" (r)
 227:./CMSIS_5/CMSIS/Core/Include/cmsis_gcc.h **** #define __CMSIS_GCC_USE_REG(r) "r" (r)
 228:./CMSIS_5/CMSIS/Core/Include/cmsis_gcc.h **** #endif
 229:./CMSIS_5/CMSIS/Core/Include/cmsis_gcc.h **** 
 230:./CMSIS_5/CMSIS/Core/Include/cmsis_gcc.h **** /**
 231:./CMSIS_5/CMSIS/Core/Include/cmsis_gcc.h ****   \brief   No Operation
 232:./CMSIS_5/CMSIS/Core/Include/cmsis_gcc.h ****   \details No Operation does nothing. This instruction can be used for code alignment purposes.
 233:./CMSIS_5/CMSIS/Core/Include/cmsis_gcc.h ****  */
 234:./CMSIS_5/CMSIS/Core/Include/cmsis_gcc.h **** #define __NOP()                             __ASM volatile ("nop")
 235:./CMSIS_5/CMSIS/Core/Include/cmsis_gcc.h **** 
 236:./CMSIS_5/CMSIS/Core/Include/cmsis_gcc.h **** /**
 237:./CMSIS_5/CMSIS/Core/Include/cmsis_gcc.h ****   \brief   Wait For Interrupt
 238:./CMSIS_5/CMSIS/Core/Include/cmsis_gcc.h ****   \details Wait For Interrupt is a hint instruction that suspends execution until one of a number o
 239:./CMSIS_5/CMSIS/Core/Include/cmsis_gcc.h ****  */
 240:./CMSIS_5/CMSIS/Core/Include/cmsis_gcc.h **** #define __WFI()                             __ASM volatile ("wfi":::"memory")
 241:./CMSIS_5/CMSIS/Core/Include/cmsis_gcc.h **** 
 242:./CMSIS_5/CMSIS/Core/Include/cmsis_gcc.h **** 
 243:./CMSIS_5/CMSIS/Core/Include/cmsis_gcc.h **** /**
 244:./CMSIS_5/CMSIS/Core/Include/cmsis_gcc.h ****   \brief   Wait For Event
 245:./CMSIS_5/CMSIS/Core/Include/cmsis_gcc.h ****   \details Wait For Event is a hint instruction that permits the processor to enter
 246:./CMSIS_5/CMSIS/Core/Include/cmsis_gcc.h ****            a low-power state until one of a number of events occurs.
 247:./CMSIS_5/CMSIS/Core/Include/cmsis_gcc.h ****  */
 248:./CMSIS_5/CMSIS/Core/Include/cmsis_gcc.h **** #define __WFE()                             __ASM volatile ("wfe":::"memory")
 249:./CMSIS_5/CMSIS/Core/Include/cmsis_gcc.h **** 
 250:./CMSIS_5/CMSIS/Core/Include/cmsis_gcc.h **** 
 251:./CMSIS_5/CMSIS/Core/Include/cmsis_gcc.h **** /**
 252:./CMSIS_5/CMSIS/Core/Include/cmsis_gcc.h ****   \brief   Send Event
 253:./CMSIS_5/CMSIS/Core/Include/cmsis_gcc.h ****   \details Send Event is a hint instruction. It causes an event to be signaled to the CPU.
 254:./CMSIS_5/CMSIS/Core/Include/cmsis_gcc.h ****  */
 255:./CMSIS_5/CMSIS/Core/Include/cmsis_gcc.h **** #define __SEV()                             __ASM volatile ("sev")
 256:./CMSIS_5/CMSIS/Core/Include/cmsis_gcc.h **** 
 257:./CMSIS_5/CMSIS/Core/Include/cmsis_gcc.h **** 
 258:./CMSIS_5/CMSIS/Core/Include/cmsis_gcc.h **** /**
 259:./CMSIS_5/CMSIS/Core/Include/cmsis_gcc.h ****   \brief   Instruction Synchronization Barrier
 260:./CMSIS_5/CMSIS/Core/Include/cmsis_gcc.h ****   \details Instruction Synchronization Barrier flushes the pipeline in the processor,
 261:./CMSIS_5/CMSIS/Core/Include/cmsis_gcc.h ****            so that all instructions following the ISB are fetched from cache or memory,
 262:./CMSIS_5/CMSIS/Core/Include/cmsis_gcc.h ****            after the instruction has been completed.
 263:./CMSIS_5/CMSIS/Core/Include/cmsis_gcc.h ****  */
 264:./CMSIS_5/CMSIS/Core/Include/cmsis_gcc.h **** __STATIC_FORCEINLINE void __ISB(void)
 265:./CMSIS_5/CMSIS/Core/Include/cmsis_gcc.h **** {
 266:./CMSIS_5/CMSIS/Core/Include/cmsis_gcc.h ****   __ASM volatile ("isb 0xF":::"memory");
 267:./CMSIS_5/CMSIS/Core/Include/cmsis_gcc.h **** }
 268:./CMSIS_5/CMSIS/Core/Include/cmsis_gcc.h **** 
 269:./CMSIS_5/CMSIS/Core/Include/cmsis_gcc.h **** 
 270:./CMSIS_5/CMSIS/Core/Include/cmsis_gcc.h **** /**
 271:./CMSIS_5/CMSIS/Core/Include/cmsis_gcc.h ****   \brief   Data Synchronization Barrier
 272:./CMSIS_5/CMSIS/Core/Include/cmsis_gcc.h ****   \details Acts as a special kind of Data Memory Barrier.
 273:./CMSIS_5/CMSIS/Core/Include/cmsis_gcc.h ****            It completes when all explicit memory accesses before this instruction complete.
 274:./CMSIS_5/CMSIS/Core/Include/cmsis_gcc.h ****  */
 275:./CMSIS_5/CMSIS/Core/Include/cmsis_gcc.h **** __STATIC_FORCEINLINE void __DSB(void)
 185              		.loc 3 275 27 view .LVU37
 186              	.LBB54:
 276:./CMSIS_5/CMSIS/Core/Include/cmsis_gcc.h **** {
 277:./CMSIS_5/CMSIS/Core/Include/cmsis_gcc.h ****   __ASM volatile ("dsb 0xF":::"memory");
 187              		.loc 3 277 3 view .LVU38
 188              		.syntax unified
 189              	@ 277 "./CMSIS_5/CMSIS/Core/Include/cmsis_gcc.h" 1
 190 001c BFF34F8F 		dsb 0xF
 191              	@ 0 "" 2
 192              		.thumb
 193              		.syntax unified
 194              	.LBE54:
 195              	.LBE53:
 311:system_nrf52.c ****         __ISB();
 196              		.loc 1 311 9 view .LVU39
 197              	.LBB55:
 198              	.LBI55:
 264:./CMSIS_5/CMSIS/Core/Include/cmsis_gcc.h **** {
 199              		.loc 3 264 27 view .LVU40
 200              	.LBB56:
 266:./CMSIS_5/CMSIS/Core/Include/cmsis_gcc.h **** }
 201              		.loc 3 266 3 view .LVU41
 202              		.syntax unified
 203              	@ 266 "./CMSIS_5/CMSIS/Core/Include/cmsis_gcc.h" 1
 204 0020 BFF36F8F 		isb 0xF
 205              	@ 0 "" 2
 206              		.thumb
 207              		.syntax unified
 208              	.LBE56:
 209              	.LBE55:
 312:system_nrf52.c ****     #endif
 313:system_nrf52.c **** 
 314:system_nrf52.c ****     nrf52_handle_approtect();
 210              		.loc 1 314 5 view .LVU42
 211              	.LBB57:
 212              	.LBI57:
 213              		.file 4 "./Include/system_nrf52_approtect.h"
   1:./Include/system_nrf52_approtect.h **** /*
   2:./Include/system_nrf52_approtect.h **** 
   3:./Include/system_nrf52_approtect.h **** Copyright (c) 2009-2024 ARM Limited. All rights reserved.
   4:./Include/system_nrf52_approtect.h **** 
   5:./Include/system_nrf52_approtect.h ****     SPDX-License-Identifier: Apache-2.0
   6:./Include/system_nrf52_approtect.h **** 
   7:./Include/system_nrf52_approtect.h **** Licensed under the Apache License, Version 2.0 (the License); you may
   8:./Include/system_nrf52_approtect.h **** not use this file except in compliance with the License.
   9:./Include/system_nrf52_approtect.h **** You may obtain a copy of the License at
  10:./Include/system_nrf52_approtect.h **** 
  11:./Include/system_nrf52_approtect.h ****     www.apache.org/licenses/LICENSE-2.0
  12:./Include/system_nrf52_approtect.h **** 
  13:./Include/system_nrf52_approtect.h **** Unless required by applicable law or agreed to in writing, software
  14:./Include/system_nrf52_approtect.h **** distributed under the License is distributed on an AS IS BASIS, WITHOUT
  15:./Include/system_nrf52_approtect.h **** WARRANTIES OR CONDITIONS OF ANY KIND, either express or implied.
  16:./Include/system_nrf52_approtect.h **** See the License for the specific language governing permissions and
  17:./Include/system_nrf52_approtect.h **** limitations under the License.
  18:./Include/system_nrf52_approtect.h **** 
  19:./Include/system_nrf52_approtect.h **** NOTICE: This file has been modified by Nordic Semiconductor ASA.
  20:./Include/system_nrf52_approtect.h **** 
  21:./Include/system_nrf52_approtect.h **** */
  22:./Include/system_nrf52_approtect.h **** 
  23:./Include/system_nrf52_approtect.h **** #ifndef SYSTEM_NRF52_APPROTECT_H
  24:./Include/system_nrf52_approtect.h **** #define SYSTEM_NRF52_APPROTECT_H
  25:./Include/system_nrf52_approtect.h **** 
  26:./Include/system_nrf52_approtect.h **** #include "nrf.h"
  27:./Include/system_nrf52_approtect.h **** #include "nrf52_erratas.h"
  28:./Include/system_nrf52_approtect.h **** 
  29:./Include/system_nrf52_approtect.h **** #ifdef __cplusplus
  30:./Include/system_nrf52_approtect.h **** extern "C" {
  31:./Include/system_nrf52_approtect.h **** #endif
  32:./Include/system_nrf52_approtect.h **** 
  33:./Include/system_nrf52_approtect.h **** 
  34:./Include/system_nrf52_approtect.h **** /* Function that handles firmware-driven enabling or disabling of APPROTECT on devices where it is 
  35:./Include/system_nrf52_approtect.h ****         If ENABLE_APPROTECT is defined, the FW will lock the fw branch of the APPROTECT mechanism,
  36:./Include/system_nrf52_approtect.h ****                             preventing it from being opened.
  37:./Include/system_nrf52_approtect.h ****         Otherwise, the fw branch state is loaded from UICR, emulating the legacy APPROTECT behavior
  38:./Include/system_nrf52_approtect.h **** 
  39:./Include/system_nrf52_approtect.h ****          The same mechanism is implemented for SECURE APPROTECT, with the macros
  40:./Include/system_nrf52_approtect.h ****          ENABLE_SECURE_APPROTECT and ENABLE_SECURE_APPROTECT_USER_HANDLING. */
  41:./Include/system_nrf52_approtect.h **** static inline void nrf52_handle_approtect(void)
 214              		.loc 4 41 20 view .LVU43
 215              	.LBB58:
  42:./Include/system_nrf52_approtect.h **** {
  43:./Include/system_nrf52_approtect.h ****     #if NRF52_CONFIGURATION_249_PRESENT
  44:./Include/system_nrf52_approtect.h ****         #if defined (ENABLE_APPROTECT)
  45:./Include/system_nrf52_approtect.h ****             if (nrf52_configuration_249())
  46:./Include/system_nrf52_approtect.h ****             {
  47:./Include/system_nrf52_approtect.h ****                 /* Prevent processor from unlocking APPROTECT soft branch after this point. */
  48:./Include/system_nrf52_approtect.h ****                 NRF_APPROTECT->FORCEPROTECT = APPROTECT_FORCEPROTECT_FORCEPROTECT_Force;
  49:./Include/system_nrf52_approtect.h ****             }
  50:./Include/system_nrf52_approtect.h ****         #else
  51:./Include/system_nrf52_approtect.h ****             if (nrf52_configuration_249())
 216              		.loc 4 51 13 view .LVU44
 217              	.LBB59:
 218              	.LBI59:
1870:./Include/nrf52_erratas.h ****             {
1871:./Include/nrf52_erratas.h ****                 switch(var2)
1872:./Include/nrf52_erratas.h ****                 {
1873:./Include/nrf52_erratas.h ****                     case 0x00ul:
1874:./Include/nrf52_erratas.h ****                         return true;
1875:./Include/nrf52_erratas.h ****                     case 0x01ul:
1876:./Include/nrf52_erratas.h ****                         return true;
1877:./Include/nrf52_erratas.h ****                     case 0x02ul:
1878:./Include/nrf52_erratas.h ****                         return true;
1879:./Include/nrf52_erratas.h ****                     case 0x03ul:
1880:./Include/nrf52_erratas.h ****                         return true;
1881:./Include/nrf52_erratas.h ****                     case 0x04ul:
1882:./Include/nrf52_erratas.h ****                         return true;
1883:./Include/nrf52_erratas.h ****                     case 0x05ul:
1884:./Include/nrf52_erratas.h ****                         return true;
1885:./Include/nrf52_erratas.h ****                     default:
1886:./Include/nrf52_erratas.h ****                         return true;
1887:./Include/nrf52_erratas.h ****                 }
1888:./Include/nrf52_erratas.h ****             }
1889:./Include/nrf52_erratas.h ****         #endif
1890:./Include/nrf52_erratas.h ****         #if defined (NRF52810_XXAA) || defined (DEVELOP_IN_NRF52810)
1891:./Include/nrf52_erratas.h ****             if (var1 == 0x0A)
1892:./Include/nrf52_erratas.h ****             {
1893:./Include/nrf52_erratas.h ****                 switch(var2)
1894:./Include/nrf52_erratas.h ****                 {
1895:./Include/nrf52_erratas.h ****                     case 0x00ul:
1896:./Include/nrf52_erratas.h ****                         return true;
1897:./Include/nrf52_erratas.h ****                     case 0x01ul:
1898:./Include/nrf52_erratas.h ****                         return true;
1899:./Include/nrf52_erratas.h ****                     case 0x02ul:
1900:./Include/nrf52_erratas.h ****                         return true;
1901:./Include/nrf52_erratas.h ****                     default:
1902:./Include/nrf52_erratas.h ****                         return true;
1903:./Include/nrf52_erratas.h ****                 }
1904:./Include/nrf52_erratas.h ****             }
1905:./Include/nrf52_erratas.h ****         #endif
1906:./Include/nrf52_erratas.h ****         #if defined (NRF52833_XXAA) || defined (DEVELOP_IN_NRF52833)
1907:./Include/nrf52_erratas.h ****             if (var1 == 0x0D)
1908:./Include/nrf52_erratas.h ****             {
1909:./Include/nrf52_erratas.h ****                 switch(var2)
1910:./Include/nrf52_erratas.h ****                 {
1911:./Include/nrf52_erratas.h ****                     case 0x00ul:
1912:./Include/nrf52_erratas.h ****                         return true;
1913:./Include/nrf52_erratas.h ****                     case 0x01ul:
1914:./Include/nrf52_erratas.h ****                         return true;
1915:./Include/nrf52_erratas.h ****                     default:
1916:./Include/nrf52_erratas.h ****                         return true;
1917:./Include/nrf52_erratas.h ****                 }
1918:./Include/nrf52_erratas.h ****             }
1919:./Include/nrf52_erratas.h ****         #endif
1920:./Include/nrf52_erratas.h ****         #if defined (NRF52811_XXAA) || defined (DEVELOP_IN_NRF52811)
1921:./Include/nrf52_erratas.h ****             if (var1 == 0x0E)
1922:./Include/nrf52_erratas.h ****             {
1923:./Include/nrf52_erratas.h ****                 switch(var2)
1924:./Include/nrf52_erratas.h ****                 {
1925:./Include/nrf52_erratas.h ****                     case 0x00ul:
1926:./Include/nrf52_erratas.h ****                         return true;
1927:./Include/nrf52_erratas.h ****                     case 0x01ul:
1928:./Include/nrf52_erratas.h ****                         return true;
1929:./Include/nrf52_erratas.h ****                     default:
1930:./Include/nrf52_erratas.h ****                         return true;
1931:./Include/nrf52_erratas.h ****                 }
1932:./Include/nrf52_erratas.h ****             }
1933:./Include/nrf52_erratas.h ****         #endif
1934:./Include/nrf52_erratas.h ****         #if defined (NRF52805_XXAA) || defined (DEVELOP_IN_NRF52805)
1935:./Include/nrf52_erratas.h ****             if (var1 == 0x0F)
1936:./Include/nrf52_erratas.h ****             {
1937:./Include/nrf52_erratas.h ****                 switch(var2)
1938:./Include/nrf52_erratas.h ****                 {
1939:./Include/nrf52_erratas.h ****                     case 0x00ul:
1940:./Include/nrf52_erratas.h ****                         return true;
1941:./Include/nrf52_erratas.h ****                     case 0x01ul:
1942:./Include/nrf52_erratas.h ****                         return true;
1943:./Include/nrf52_erratas.h ****                     default:
1944:./Include/nrf52_erratas.h ****                         return true;
1945:./Include/nrf52_erratas.h ****                 }
1946:./Include/nrf52_erratas.h ****             }
1947:./Include/nrf52_erratas.h ****         #endif
1948:./Include/nrf52_erratas.h ****         #if defined (NRF52820_XXAA) || defined (DEVELOP_IN_NRF52820)
1949:./Include/nrf52_erratas.h ****             if (var1 == 0x10)
1950:./Include/nrf52_erratas.h ****             {
1951:./Include/nrf52_erratas.h ****                 switch(var2)
1952:./Include/nrf52_erratas.h ****                 {
1953:./Include/nrf52_erratas.h ****                     case 0x00ul:
1954:./Include/nrf52_erratas.h ****                         return true;
1955:./Include/nrf52_erratas.h ****                     case 0x01ul:
1956:./Include/nrf52_erratas.h ****                         return true;
1957:./Include/nrf52_erratas.h ****                     case 0x02ul:
1958:./Include/nrf52_erratas.h ****                         return true;
1959:./Include/nrf52_erratas.h ****                     case 0x03ul:
1960:./Include/nrf52_erratas.h ****                         return true;
1961:./Include/nrf52_erratas.h ****                     default:
1962:./Include/nrf52_erratas.h ****                         return true;
1963:./Include/nrf52_erratas.h ****                 }
1964:./Include/nrf52_erratas.h ****             }
1965:./Include/nrf52_erratas.h ****         #endif
1966:./Include/nrf52_erratas.h ****         return false;
1967:./Include/nrf52_erratas.h ****     #endif
1968:./Include/nrf52_erratas.h **** }
1969:./Include/nrf52_erratas.h **** 
1970:./Include/nrf52_erratas.h **** /* ========= Errata 37 ========= */
1971:./Include/nrf52_erratas.h **** #if    defined (NRF52832_XXAA) || defined (DEVELOP_IN_NRF52832) \
1972:./Include/nrf52_erratas.h ****     || defined (NRF52832_XXAB) || defined (DEVELOP_IN_NRF52832)
1973:./Include/nrf52_erratas.h ****     #define NRF52_ERRATA_37_PRESENT 1
1974:./Include/nrf52_erratas.h **** #else
1975:./Include/nrf52_erratas.h ****     #define NRF52_ERRATA_37_PRESENT 0
1976:./Include/nrf52_erratas.h **** #endif
1977:./Include/nrf52_erratas.h **** 
1978:./Include/nrf52_erratas.h **** #ifndef NRF52_ERRATA_37_ENABLE_WORKAROUND
1979:./Include/nrf52_erratas.h ****     #define NRF52_ERRATA_37_ENABLE_WORKAROUND NRF52_ERRATA_37_PRESENT
1980:./Include/nrf52_erratas.h **** #endif
1981:./Include/nrf52_erratas.h **** 
1982:./Include/nrf52_erratas.h **** static bool nrf52_errata_37(void)
1983:./Include/nrf52_erratas.h **** {
1984:./Include/nrf52_erratas.h ****     #ifndef NRF52_SERIES
1985:./Include/nrf52_erratas.h ****         return false;
1986:./Include/nrf52_erratas.h ****     #else
1987:./Include/nrf52_erratas.h ****         #if defined (NRF52832_XXAA) || defined (DEVELOP_IN_NRF52832)\
1988:./Include/nrf52_erratas.h ****          || defined (NRF52832_XXAB) || defined (DEVELOP_IN_NRF52832)
1989:./Include/nrf52_erratas.h ****             uint32_t var1 = ((*(uint32_t *)0xF0000FE0ul) & 0x000000FFul);
1990:./Include/nrf52_erratas.h ****             uint32_t var2 = ((*(uint32_t *)0xF0000FE8ul) & 0x000000F0ul) >> 4;
1991:./Include/nrf52_erratas.h ****         #endif
1992:./Include/nrf52_erratas.h ****         #if defined (NRF52832_XXAA) || defined (DEVELOP_IN_NRF52832)\
1993:./Include/nrf52_erratas.h ****          || defined (NRF52832_XXAB) || defined (DEVELOP_IN_NRF52832)
1994:./Include/nrf52_erratas.h ****             if (var1 == 0x06)
1995:./Include/nrf52_erratas.h ****             {
1996:./Include/nrf52_erratas.h ****                 switch(var2)
1997:./Include/nrf52_erratas.h ****                 {
1998:./Include/nrf52_erratas.h ****                     case 0x03ul:
1999:./Include/nrf52_erratas.h ****                         return true;
2000:./Include/nrf52_erratas.h ****                     case 0x04ul:
2001:./Include/nrf52_erratas.h ****                         return false;
2002:./Include/nrf52_erratas.h ****                     case 0x05ul:
2003:./Include/nrf52_erratas.h ****                         return false;
2004:./Include/nrf52_erratas.h ****                     case 0x06ul:
2005:./Include/nrf52_erratas.h ****                         return false;
2006:./Include/nrf52_erratas.h ****                     case 0x07ul:
2007:./Include/nrf52_erratas.h ****                         return false;
2008:./Include/nrf52_erratas.h ****                     default:
2009:./Include/nrf52_erratas.h ****                         return false;
2010:./Include/nrf52_erratas.h ****                 }
2011:./Include/nrf52_erratas.h ****             }
2012:./Include/nrf52_erratas.h ****         #endif
2013:./Include/nrf52_erratas.h ****         return false;
2014:./Include/nrf52_erratas.h ****     #endif
2015:./Include/nrf52_erratas.h **** }
2016:./Include/nrf52_erratas.h **** 
2017:./Include/nrf52_erratas.h **** /* ========= Errata 38 ========= */
2018:./Include/nrf52_erratas.h **** #if    defined (NRF52832_XXAA) || defined (DEVELOP_IN_NRF52832) \
2019:./Include/nrf52_erratas.h ****     || defined (NRF52832_XXAB) || defined (DEVELOP_IN_NRF52832)
2020:./Include/nrf52_erratas.h ****     #define NRF52_ERRATA_38_PRESENT 1
2021:./Include/nrf52_erratas.h **** #else
2022:./Include/nrf52_erratas.h ****     #define NRF52_ERRATA_38_PRESENT 0
2023:./Include/nrf52_erratas.h **** #endif
2024:./Include/nrf52_erratas.h **** 
2025:./Include/nrf52_erratas.h **** #ifndef NRF52_ERRATA_38_ENABLE_WORKAROUND
2026:./Include/nrf52_erratas.h ****     #define NRF52_ERRATA_38_ENABLE_WORKAROUND NRF52_ERRATA_38_PRESENT
2027:./Include/nrf52_erratas.h **** #endif
2028:./Include/nrf52_erratas.h **** 
2029:./Include/nrf52_erratas.h **** static bool nrf52_errata_38(void)
2030:./Include/nrf52_erratas.h **** {
2031:./Include/nrf52_erratas.h ****     #ifndef NRF52_SERIES
2032:./Include/nrf52_erratas.h ****         return false;
2033:./Include/nrf52_erratas.h ****     #else
2034:./Include/nrf52_erratas.h ****         #if defined (NRF52832_XXAA) || defined (DEVELOP_IN_NRF52832)\
2035:./Include/nrf52_erratas.h ****          || defined (NRF52832_XXAB) || defined (DEVELOP_IN_NRF52832)
2036:./Include/nrf52_erratas.h ****             uint32_t var1 = ((*(uint32_t *)0xF0000FE0ul) & 0x000000FFul);
2037:./Include/nrf52_erratas.h ****             uint32_t var2 = ((*(uint32_t *)0xF0000FE8ul) & 0x000000F0ul) >> 4;
2038:./Include/nrf52_erratas.h ****         #endif
2039:./Include/nrf52_erratas.h ****         #if defined (NRF52832_XXAA) || defined (DEVELOP_IN_NRF52832)\
2040:./Include/nrf52_erratas.h ****          || defined (NRF52832_XXAB) || defined (DEVELOP_IN_NRF52832)
2041:./Include/nrf52_erratas.h ****             if (var1 == 0x06)
2042:./Include/nrf52_erratas.h ****             {
2043:./Include/nrf52_erratas.h ****                 switch(var2)
2044:./Include/nrf52_erratas.h ****                 {
2045:./Include/nrf52_erratas.h ****                     case 0x03ul:
2046:./Include/nrf52_erratas.h ****                         return true;
2047:./Include/nrf52_erratas.h ****                     case 0x04ul:
2048:./Include/nrf52_erratas.h ****                         return false;
2049:./Include/nrf52_erratas.h ****                     case 0x05ul:
2050:./Include/nrf52_erratas.h ****                         return false;
2051:./Include/nrf52_erratas.h ****                     case 0x06ul:
2052:./Include/nrf52_erratas.h ****                         return false;
2053:./Include/nrf52_erratas.h ****                     case 0x07ul:
2054:./Include/nrf52_erratas.h ****                         return false;
2055:./Include/nrf52_erratas.h ****                     default:
2056:./Include/nrf52_erratas.h ****                         return false;
2057:./Include/nrf52_erratas.h ****                 }
2058:./Include/nrf52_erratas.h ****             }
2059:./Include/nrf52_erratas.h ****         #endif
2060:./Include/nrf52_erratas.h ****         return false;
2061:./Include/nrf52_erratas.h ****     #endif
2062:./Include/nrf52_erratas.h **** }
2063:./Include/nrf52_erratas.h **** 
2064:./Include/nrf52_erratas.h **** /* ========= Errata 39 ========= */
2065:./Include/nrf52_erratas.h **** #if    defined (NRF52832_XXAA) || defined (DEVELOP_IN_NRF52832) \
2066:./Include/nrf52_erratas.h ****     || defined (NRF52832_XXAB) || defined (DEVELOP_IN_NRF52832)
2067:./Include/nrf52_erratas.h ****     #define NRF52_ERRATA_39_PRESENT 1
2068:./Include/nrf52_erratas.h **** #else
2069:./Include/nrf52_erratas.h ****     #define NRF52_ERRATA_39_PRESENT 0
2070:./Include/nrf52_erratas.h **** #endif
2071:./Include/nrf52_erratas.h **** 
2072:./Include/nrf52_erratas.h **** #ifndef NRF52_ERRATA_39_ENABLE_WORKAROUND
2073:./Include/nrf52_erratas.h ****     #define NRF52_ERRATA_39_ENABLE_WORKAROUND NRF52_ERRATA_39_PRESENT
2074:./Include/nrf52_erratas.h **** #endif
2075:./Include/nrf52_erratas.h **** 
2076:./Include/nrf52_erratas.h **** static bool nrf52_errata_39(void)
2077:./Include/nrf52_erratas.h **** {
2078:./Include/nrf52_erratas.h ****     #ifndef NRF52_SERIES
2079:./Include/nrf52_erratas.h ****         return false;
2080:./Include/nrf52_erratas.h ****     #else
2081:./Include/nrf52_erratas.h ****         #if defined (NRF52832_XXAA) || defined (DEVELOP_IN_NRF52832)\
2082:./Include/nrf52_erratas.h ****          || defined (NRF52832_XXAB) || defined (DEVELOP_IN_NRF52832)
2083:./Include/nrf52_erratas.h ****             uint32_t var1 = ((*(uint32_t *)0xF0000FE0ul) & 0x000000FFul);
2084:./Include/nrf52_erratas.h ****             uint32_t var2 = ((*(uint32_t *)0xF0000FE8ul) & 0x000000F0ul) >> 4;
2085:./Include/nrf52_erratas.h ****         #endif
2086:./Include/nrf52_erratas.h ****         #if defined (NRF52832_XXAA) || defined (DEVELOP_IN_NRF52832)\
2087:./Include/nrf52_erratas.h ****          || defined (NRF52832_XXAB) || defined (DEVELOP_IN_NRF52832)
2088:./Include/nrf52_erratas.h ****             if (var1 == 0x06)
2089:./Include/nrf52_erratas.h ****             {
2090:./Include/nrf52_erratas.h ****                 switch(var2)
2091:./Include/nrf52_erratas.h ****                 {
2092:./Include/nrf52_erratas.h ****                     case 0x03ul:
2093:./Include/nrf52_erratas.h ****                         return true;
2094:./Include/nrf52_erratas.h ****                     case 0x04ul:
2095:./Include/nrf52_erratas.h ****                         return false;
2096:./Include/nrf52_erratas.h ****                     case 0x05ul:
2097:./Include/nrf52_erratas.h ****                         return false;
2098:./Include/nrf52_erratas.h ****                     case 0x06ul:
2099:./Include/nrf52_erratas.h ****                         return false;
2100:./Include/nrf52_erratas.h ****                     case 0x07ul:
2101:./Include/nrf52_erratas.h ****                         return false;
2102:./Include/nrf52_erratas.h ****                     default:
2103:./Include/nrf52_erratas.h ****                         return false;
2104:./Include/nrf52_erratas.h ****                 }
2105:./Include/nrf52_erratas.h ****             }
2106:./Include/nrf52_erratas.h ****         #endif
2107:./Include/nrf52_erratas.h ****         return false;
2108:./Include/nrf52_erratas.h ****     #endif
2109:./Include/nrf52_erratas.h **** }
2110:./Include/nrf52_erratas.h **** 
2111:./Include/nrf52_erratas.h **** /* ========= Errata 40 ========= */
2112:./Include/nrf52_erratas.h **** #if    defined (NRF52832_XXAA) || defined (DEVELOP_IN_NRF52832) \
2113:./Include/nrf52_erratas.h ****     || defined (NRF52832_XXAB) || defined (DEVELOP_IN_NRF52832)
2114:./Include/nrf52_erratas.h ****     #define NRF52_ERRATA_40_PRESENT 1
2115:./Include/nrf52_erratas.h **** #else
2116:./Include/nrf52_erratas.h ****     #define NRF52_ERRATA_40_PRESENT 0
2117:./Include/nrf52_erratas.h **** #endif
2118:./Include/nrf52_erratas.h **** 
2119:./Include/nrf52_erratas.h **** #ifndef NRF52_ERRATA_40_ENABLE_WORKAROUND
2120:./Include/nrf52_erratas.h ****     #define NRF52_ERRATA_40_ENABLE_WORKAROUND NRF52_ERRATA_40_PRESENT
2121:./Include/nrf52_erratas.h **** #endif
2122:./Include/nrf52_erratas.h **** 
2123:./Include/nrf52_erratas.h **** static bool nrf52_errata_40(void)
2124:./Include/nrf52_erratas.h **** {
2125:./Include/nrf52_erratas.h ****     #ifndef NRF52_SERIES
2126:./Include/nrf52_erratas.h ****         return false;
2127:./Include/nrf52_erratas.h ****     #else
2128:./Include/nrf52_erratas.h ****         #if defined (NRF52832_XXAA) || defined (DEVELOP_IN_NRF52832)\
2129:./Include/nrf52_erratas.h ****          || defined (NRF52832_XXAB) || defined (DEVELOP_IN_NRF52832)
2130:./Include/nrf52_erratas.h ****             uint32_t var1 = ((*(uint32_t *)0xF0000FE0ul) & 0x000000FFul);
2131:./Include/nrf52_erratas.h ****             uint32_t var2 = ((*(uint32_t *)0xF0000FE8ul) & 0x000000F0ul) >> 4;
2132:./Include/nrf52_erratas.h ****         #endif
2133:./Include/nrf52_erratas.h ****         #if defined (NRF52832_XXAA) || defined (DEVELOP_IN_NRF52832)\
2134:./Include/nrf52_erratas.h ****          || defined (NRF52832_XXAB) || defined (DEVELOP_IN_NRF52832)
2135:./Include/nrf52_erratas.h ****             if (var1 == 0x06)
2136:./Include/nrf52_erratas.h ****             {
2137:./Include/nrf52_erratas.h ****                 switch(var2)
2138:./Include/nrf52_erratas.h ****                 {
2139:./Include/nrf52_erratas.h ****                     case 0x03ul:
2140:./Include/nrf52_erratas.h ****                         return true;
2141:./Include/nrf52_erratas.h ****                     case 0x04ul:
2142:./Include/nrf52_erratas.h ****                         return false;
2143:./Include/nrf52_erratas.h ****                     case 0x05ul:
2144:./Include/nrf52_erratas.h ****                         return false;
2145:./Include/nrf52_erratas.h ****                     case 0x06ul:
2146:./Include/nrf52_erratas.h ****                         return false;
2147:./Include/nrf52_erratas.h ****                     case 0x07ul:
2148:./Include/nrf52_erratas.h ****                         return false;
2149:./Include/nrf52_erratas.h ****                     default:
2150:./Include/nrf52_erratas.h ****                         return false;
2151:./Include/nrf52_erratas.h ****                 }
2152:./Include/nrf52_erratas.h ****             }
2153:./Include/nrf52_erratas.h ****         #endif
2154:./Include/nrf52_erratas.h ****         return false;
2155:./Include/nrf52_erratas.h ****     #endif
2156:./Include/nrf52_erratas.h **** }
2157:./Include/nrf52_erratas.h **** 
2158:./Include/nrf52_erratas.h **** /* ========= Errata 41 ========= */
2159:./Include/nrf52_erratas.h **** #if    defined (NRF52832_XXAA) || defined (DEVELOP_IN_NRF52832) \
2160:./Include/nrf52_erratas.h ****     || defined (NRF52832_XXAB) || defined (DEVELOP_IN_NRF52832)
2161:./Include/nrf52_erratas.h ****     #define NRF52_ERRATA_41_PRESENT 1
2162:./Include/nrf52_erratas.h **** #else
2163:./Include/nrf52_erratas.h ****     #define NRF52_ERRATA_41_PRESENT 0
2164:./Include/nrf52_erratas.h **** #endif
2165:./Include/nrf52_erratas.h **** 
2166:./Include/nrf52_erratas.h **** #ifndef NRF52_ERRATA_41_ENABLE_WORKAROUND
2167:./Include/nrf52_erratas.h ****     #define NRF52_ERRATA_41_ENABLE_WORKAROUND NRF52_ERRATA_41_PRESENT
2168:./Include/nrf52_erratas.h **** #endif
2169:./Include/nrf52_erratas.h **** 
2170:./Include/nrf52_erratas.h **** static bool nrf52_errata_41(void)
2171:./Include/nrf52_erratas.h **** {
2172:./Include/nrf52_erratas.h ****     #ifndef NRF52_SERIES
2173:./Include/nrf52_erratas.h ****         return false;
2174:./Include/nrf52_erratas.h ****     #else
2175:./Include/nrf52_erratas.h ****         #if defined (NRF52832_XXAA) || defined (DEVELOP_IN_NRF52832)\
2176:./Include/nrf52_erratas.h ****          || defined (NRF52832_XXAB) || defined (DEVELOP_IN_NRF52832)
2177:./Include/nrf52_erratas.h ****             uint32_t var1 = ((*(uint32_t *)0xF0000FE0ul) & 0x000000FFul);
2178:./Include/nrf52_erratas.h ****             uint32_t var2 = ((*(uint32_t *)0xF0000FE8ul) & 0x000000F0ul) >> 4;
2179:./Include/nrf52_erratas.h ****         #endif
2180:./Include/nrf52_erratas.h ****         #if defined (NRF52832_XXAA) || defined (DEVELOP_IN_NRF52832)\
2181:./Include/nrf52_erratas.h ****          || defined (NRF52832_XXAB) || defined (DEVELOP_IN_NRF52832)
2182:./Include/nrf52_erratas.h ****             if (var1 == 0x06)
2183:./Include/nrf52_erratas.h ****             {
2184:./Include/nrf52_erratas.h ****                 switch(var2)
2185:./Include/nrf52_erratas.h ****                 {
2186:./Include/nrf52_erratas.h ****                     case 0x03ul:
2187:./Include/nrf52_erratas.h ****                         return true;
2188:./Include/nrf52_erratas.h ****                     case 0x04ul:
2189:./Include/nrf52_erratas.h ****                         return false;
2190:./Include/nrf52_erratas.h ****                     case 0x05ul:
2191:./Include/nrf52_erratas.h ****                         return false;
2192:./Include/nrf52_erratas.h ****                     case 0x06ul:
2193:./Include/nrf52_erratas.h ****                         return false;
2194:./Include/nrf52_erratas.h ****                     case 0x07ul:
2195:./Include/nrf52_erratas.h ****                         return false;
2196:./Include/nrf52_erratas.h ****                     default:
2197:./Include/nrf52_erratas.h ****                         return false;
2198:./Include/nrf52_erratas.h ****                 }
2199:./Include/nrf52_erratas.h ****             }
2200:./Include/nrf52_erratas.h ****         #endif
2201:./Include/nrf52_erratas.h ****         return false;
2202:./Include/nrf52_erratas.h ****     #endif
2203:./Include/nrf52_erratas.h **** }
2204:./Include/nrf52_erratas.h **** 
2205:./Include/nrf52_erratas.h **** /* ========= Errata 42 ========= */
2206:./Include/nrf52_erratas.h **** #if    defined (NRF52832_XXAA) || defined (DEVELOP_IN_NRF52832) \
2207:./Include/nrf52_erratas.h ****     || defined (NRF52832_XXAB) || defined (DEVELOP_IN_NRF52832)
2208:./Include/nrf52_erratas.h ****     #define NRF52_ERRATA_42_PRESENT 1
2209:./Include/nrf52_erratas.h **** #else
2210:./Include/nrf52_erratas.h ****     #define NRF52_ERRATA_42_PRESENT 0
2211:./Include/nrf52_erratas.h **** #endif
2212:./Include/nrf52_erratas.h **** 
2213:./Include/nrf52_erratas.h **** #ifndef NRF52_ERRATA_42_ENABLE_WORKAROUND
2214:./Include/nrf52_erratas.h ****     #define NRF52_ERRATA_42_ENABLE_WORKAROUND NRF52_ERRATA_42_PRESENT
2215:./Include/nrf52_erratas.h **** #endif
2216:./Include/nrf52_erratas.h **** 
2217:./Include/nrf52_erratas.h **** static bool nrf52_errata_42(void)
2218:./Include/nrf52_erratas.h **** {
2219:./Include/nrf52_erratas.h ****     #ifndef NRF52_SERIES
2220:./Include/nrf52_erratas.h ****         return false;
2221:./Include/nrf52_erratas.h ****     #else
2222:./Include/nrf52_erratas.h ****         #if defined (NRF52832_XXAA) || defined (DEVELOP_IN_NRF52832)\
2223:./Include/nrf52_erratas.h ****          || defined (NRF52832_XXAB) || defined (DEVELOP_IN_NRF52832)
2224:./Include/nrf52_erratas.h ****             uint32_t var1 = ((*(uint32_t *)0xF0000FE0ul) & 0x000000FFul);
2225:./Include/nrf52_erratas.h ****             uint32_t var2 = ((*(uint32_t *)0xF0000FE8ul) & 0x000000F0ul) >> 4;
2226:./Include/nrf52_erratas.h ****         #endif
2227:./Include/nrf52_erratas.h ****         #if defined (NRF52832_XXAA) || defined (DEVELOP_IN_NRF52832)\
2228:./Include/nrf52_erratas.h ****          || defined (NRF52832_XXAB) || defined (DEVELOP_IN_NRF52832)
2229:./Include/nrf52_erratas.h ****             if (var1 == 0x06)
2230:./Include/nrf52_erratas.h ****             {
2231:./Include/nrf52_erratas.h ****                 switch(var2)
2232:./Include/nrf52_erratas.h ****                 {
2233:./Include/nrf52_erratas.h ****                     case 0x03ul:
2234:./Include/nrf52_erratas.h ****                         return true;
2235:./Include/nrf52_erratas.h ****                     case 0x04ul:
2236:./Include/nrf52_erratas.h ****                         return false;
2237:./Include/nrf52_erratas.h ****                     case 0x05ul:
2238:./Include/nrf52_erratas.h ****                         return false;
2239:./Include/nrf52_erratas.h ****                     case 0x06ul:
2240:./Include/nrf52_erratas.h ****                         return false;
2241:./Include/nrf52_erratas.h ****                     case 0x07ul:
2242:./Include/nrf52_erratas.h ****                         return false;
2243:./Include/nrf52_erratas.h ****                     default:
2244:./Include/nrf52_erratas.h ****                         return false;
2245:./Include/nrf52_erratas.h ****                 }
2246:./Include/nrf52_erratas.h ****             }
2247:./Include/nrf52_erratas.h ****         #endif
2248:./Include/nrf52_erratas.h ****         return false;
2249:./Include/nrf52_erratas.h ****     #endif
2250:./Include/nrf52_erratas.h **** }
2251:./Include/nrf52_erratas.h **** 
2252:./Include/nrf52_erratas.h **** /* ========= Errata 43 ========= */
2253:./Include/nrf52_erratas.h **** #if    defined (NRF52832_XXAA) || defined (DEVELOP_IN_NRF52832) \
2254:./Include/nrf52_erratas.h ****     || defined (NRF52832_XXAB) || defined (DEVELOP_IN_NRF52832)
2255:./Include/nrf52_erratas.h ****     #define NRF52_ERRATA_43_PRESENT 1
2256:./Include/nrf52_erratas.h **** #else
2257:./Include/nrf52_erratas.h ****     #define NRF52_ERRATA_43_PRESENT 0
2258:./Include/nrf52_erratas.h **** #endif
2259:./Include/nrf52_erratas.h **** 
2260:./Include/nrf52_erratas.h **** #ifndef NRF52_ERRATA_43_ENABLE_WORKAROUND
2261:./Include/nrf52_erratas.h ****     #define NRF52_ERRATA_43_ENABLE_WORKAROUND NRF52_ERRATA_43_PRESENT
2262:./Include/nrf52_erratas.h **** #endif
2263:./Include/nrf52_erratas.h **** 
2264:./Include/nrf52_erratas.h **** static bool nrf52_errata_43(void)
2265:./Include/nrf52_erratas.h **** {
2266:./Include/nrf52_erratas.h ****     #ifndef NRF52_SERIES
2267:./Include/nrf52_erratas.h ****         return false;
2268:./Include/nrf52_erratas.h ****     #else
2269:./Include/nrf52_erratas.h ****         #if defined (NRF52832_XXAA) || defined (DEVELOP_IN_NRF52832)\
2270:./Include/nrf52_erratas.h ****          || defined (NRF52832_XXAB) || defined (DEVELOP_IN_NRF52832)
2271:./Include/nrf52_erratas.h ****             uint32_t var1 = ((*(uint32_t *)0xF0000FE0ul) & 0x000000FFul);
2272:./Include/nrf52_erratas.h ****             uint32_t var2 = ((*(uint32_t *)0xF0000FE8ul) & 0x000000F0ul) >> 4;
2273:./Include/nrf52_erratas.h ****         #endif
2274:./Include/nrf52_erratas.h ****         #if defined (NRF52832_XXAA) || defined (DEVELOP_IN_NRF52832)\
2275:./Include/nrf52_erratas.h ****          || defined (NRF52832_XXAB) || defined (DEVELOP_IN_NRF52832)
2276:./Include/nrf52_erratas.h ****             if (var1 == 0x06)
2277:./Include/nrf52_erratas.h ****             {
2278:./Include/nrf52_erratas.h ****                 switch(var2)
2279:./Include/nrf52_erratas.h ****                 {
2280:./Include/nrf52_erratas.h ****                     case 0x03ul:
2281:./Include/nrf52_erratas.h ****                         return true;
2282:./Include/nrf52_erratas.h ****                     case 0x04ul:
2283:./Include/nrf52_erratas.h ****                         return false;
2284:./Include/nrf52_erratas.h ****                     case 0x05ul:
2285:./Include/nrf52_erratas.h ****                         return false;
2286:./Include/nrf52_erratas.h ****                     case 0x06ul:
2287:./Include/nrf52_erratas.h ****                         return false;
2288:./Include/nrf52_erratas.h ****                     case 0x07ul:
2289:./Include/nrf52_erratas.h ****                         return false;
2290:./Include/nrf52_erratas.h ****                     default:
2291:./Include/nrf52_erratas.h ****                         return false;
2292:./Include/nrf52_erratas.h ****                 }
2293:./Include/nrf52_erratas.h ****             }
2294:./Include/nrf52_erratas.h ****         #endif
2295:./Include/nrf52_erratas.h ****         return false;
2296:./Include/nrf52_erratas.h ****     #endif
2297:./Include/nrf52_erratas.h **** }
2298:./Include/nrf52_erratas.h **** 
2299:./Include/nrf52_erratas.h **** /* ========= Errata 44 ========= */
2300:./Include/nrf52_erratas.h **** #if    defined (NRF52832_XXAA) || defined (DEVELOP_IN_NRF52832) \
2301:./Include/nrf52_erratas.h ****     || defined (NRF52832_XXAB) || defined (DEVELOP_IN_NRF52832)
2302:./Include/nrf52_erratas.h ****     #define NRF52_ERRATA_44_PRESENT 1
2303:./Include/nrf52_erratas.h **** #else
2304:./Include/nrf52_erratas.h ****     #define NRF52_ERRATA_44_PRESENT 0
2305:./Include/nrf52_erratas.h **** #endif
2306:./Include/nrf52_erratas.h **** 
2307:./Include/nrf52_erratas.h **** #ifndef NRF52_ERRATA_44_ENABLE_WORKAROUND
2308:./Include/nrf52_erratas.h ****     #define NRF52_ERRATA_44_ENABLE_WORKAROUND NRF52_ERRATA_44_PRESENT
2309:./Include/nrf52_erratas.h **** #endif
2310:./Include/nrf52_erratas.h **** 
2311:./Include/nrf52_erratas.h **** static bool nrf52_errata_44(void)
2312:./Include/nrf52_erratas.h **** {
2313:./Include/nrf52_erratas.h ****     #ifndef NRF52_SERIES
2314:./Include/nrf52_erratas.h ****         return false;
2315:./Include/nrf52_erratas.h ****     #else
2316:./Include/nrf52_erratas.h ****         #if defined (NRF52832_XXAA) || defined (DEVELOP_IN_NRF52832)\
2317:./Include/nrf52_erratas.h ****          || defined (NRF52832_XXAB) || defined (DEVELOP_IN_NRF52832)
2318:./Include/nrf52_erratas.h ****             uint32_t var1 = ((*(uint32_t *)0xF0000FE0ul) & 0x000000FFul);
2319:./Include/nrf52_erratas.h ****             uint32_t var2 = ((*(uint32_t *)0xF0000FE8ul) & 0x000000F0ul) >> 4;
2320:./Include/nrf52_erratas.h ****         #endif
2321:./Include/nrf52_erratas.h ****         #if defined (NRF52832_XXAA) || defined (DEVELOP_IN_NRF52832)\
2322:./Include/nrf52_erratas.h ****          || defined (NRF52832_XXAB) || defined (DEVELOP_IN_NRF52832)
2323:./Include/nrf52_erratas.h ****             if (var1 == 0x06)
2324:./Include/nrf52_erratas.h ****             {
2325:./Include/nrf52_erratas.h ****                 switch(var2)
2326:./Include/nrf52_erratas.h ****                 {
2327:./Include/nrf52_erratas.h ****                     case 0x03ul:
2328:./Include/nrf52_erratas.h ****                         return true;
2329:./Include/nrf52_erratas.h ****                     case 0x04ul:
2330:./Include/nrf52_erratas.h ****                         return false;
2331:./Include/nrf52_erratas.h ****                     case 0x05ul:
2332:./Include/nrf52_erratas.h ****                         return false;
2333:./Include/nrf52_erratas.h ****                     case 0x06ul:
2334:./Include/nrf52_erratas.h ****                         return false;
2335:./Include/nrf52_erratas.h ****                     case 0x07ul:
2336:./Include/nrf52_erratas.h ****                         return false;
2337:./Include/nrf52_erratas.h ****                     default:
2338:./Include/nrf52_erratas.h ****                         return false;
2339:./Include/nrf52_erratas.h ****                 }
2340:./Include/nrf52_erratas.h ****             }
2341:./Include/nrf52_erratas.h ****         #endif
2342:./Include/nrf52_erratas.h ****         return false;
2343:./Include/nrf52_erratas.h ****     #endif
2344:./Include/nrf52_erratas.h **** }
2345:./Include/nrf52_erratas.h **** 
2346:./Include/nrf52_erratas.h **** /* ========= Errata 46 ========= */
2347:./Include/nrf52_erratas.h **** #if    defined (NRF52832_XXAA) || defined (DEVELOP_IN_NRF52832) \
2348:./Include/nrf52_erratas.h ****     || defined (NRF52832_XXAB) || defined (DEVELOP_IN_NRF52832)
2349:./Include/nrf52_erratas.h ****     #define NRF52_ERRATA_46_PRESENT 1
2350:./Include/nrf52_erratas.h **** #else
2351:./Include/nrf52_erratas.h ****     #define NRF52_ERRATA_46_PRESENT 0
2352:./Include/nrf52_erratas.h **** #endif
2353:./Include/nrf52_erratas.h **** 
2354:./Include/nrf52_erratas.h **** #ifndef NRF52_ERRATA_46_ENABLE_WORKAROUND
2355:./Include/nrf52_erratas.h ****     #define NRF52_ERRATA_46_ENABLE_WORKAROUND NRF52_ERRATA_46_PRESENT
2356:./Include/nrf52_erratas.h **** #endif
2357:./Include/nrf52_erratas.h **** 
2358:./Include/nrf52_erratas.h **** static bool nrf52_errata_46(void)
2359:./Include/nrf52_erratas.h **** {
2360:./Include/nrf52_erratas.h ****     #ifndef NRF52_SERIES
2361:./Include/nrf52_erratas.h ****         return false;
2362:./Include/nrf52_erratas.h ****     #else
2363:./Include/nrf52_erratas.h ****         #if defined (NRF52832_XXAA) || defined (DEVELOP_IN_NRF52832)\
2364:./Include/nrf52_erratas.h ****          || defined (NRF52832_XXAB) || defined (DEVELOP_IN_NRF52832)
2365:./Include/nrf52_erratas.h ****             uint32_t var1 = ((*(uint32_t *)0xF0000FE0ul) & 0x000000FFul);
2366:./Include/nrf52_erratas.h ****             uint32_t var2 = ((*(uint32_t *)0xF0000FE8ul) & 0x000000F0ul) >> 4;
2367:./Include/nrf52_erratas.h ****         #endif
2368:./Include/nrf52_erratas.h ****         #if defined (NRF52832_XXAA) || defined (DEVELOP_IN_NRF52832)\
2369:./Include/nrf52_erratas.h ****          || defined (NRF52832_XXAB) || defined (DEVELOP_IN_NRF52832)
2370:./Include/nrf52_erratas.h ****             if (var1 == 0x06)
2371:./Include/nrf52_erratas.h ****             {
2372:./Include/nrf52_erratas.h ****                 switch(var2)
2373:./Include/nrf52_erratas.h ****                 {
2374:./Include/nrf52_erratas.h ****                     case 0x03ul:
2375:./Include/nrf52_erratas.h ****                         return true;
2376:./Include/nrf52_erratas.h ****                     case 0x04ul:
2377:./Include/nrf52_erratas.h ****                         return false;
2378:./Include/nrf52_erratas.h ****                     case 0x05ul:
2379:./Include/nrf52_erratas.h ****                         return false;
2380:./Include/nrf52_erratas.h ****                     case 0x06ul:
2381:./Include/nrf52_erratas.h ****                         return false;
2382:./Include/nrf52_erratas.h ****                     case 0x07ul:
2383:./Include/nrf52_erratas.h ****                         return false;
2384:./Include/nrf52_erratas.h ****                     default:
2385:./Include/nrf52_erratas.h ****                         return false;
2386:./Include/nrf52_erratas.h ****                 }
2387:./Include/nrf52_erratas.h ****             }
2388:./Include/nrf52_erratas.h ****         #endif
2389:./Include/nrf52_erratas.h ****         return false;
2390:./Include/nrf52_erratas.h ****     #endif
2391:./Include/nrf52_erratas.h **** }
2392:./Include/nrf52_erratas.h **** 
2393:./Include/nrf52_erratas.h **** /* ========= Errata 47 ========= */
2394:./Include/nrf52_erratas.h **** #if    defined (NRF52832_XXAA) || defined (DEVELOP_IN_NRF52832) \
2395:./Include/nrf52_erratas.h ****     || defined (NRF52832_XXAB) || defined (DEVELOP_IN_NRF52832)
2396:./Include/nrf52_erratas.h ****     #define NRF52_ERRATA_47_PRESENT 1
2397:./Include/nrf52_erratas.h **** #else
2398:./Include/nrf52_erratas.h ****     #define NRF52_ERRATA_47_PRESENT 0
2399:./Include/nrf52_erratas.h **** #endif
2400:./Include/nrf52_erratas.h **** 
2401:./Include/nrf52_erratas.h **** #ifndef NRF52_ERRATA_47_ENABLE_WORKAROUND
2402:./Include/nrf52_erratas.h ****     #define NRF52_ERRATA_47_ENABLE_WORKAROUND NRF52_ERRATA_47_PRESENT
2403:./Include/nrf52_erratas.h **** #endif
2404:./Include/nrf52_erratas.h **** 
2405:./Include/nrf52_erratas.h **** static bool nrf52_errata_47(void)
2406:./Include/nrf52_erratas.h **** {
2407:./Include/nrf52_erratas.h ****     #ifndef NRF52_SERIES
2408:./Include/nrf52_erratas.h ****         return false;
2409:./Include/nrf52_erratas.h ****     #else
2410:./Include/nrf52_erratas.h ****         #if defined (NRF52832_XXAA) || defined (DEVELOP_IN_NRF52832)\
2411:./Include/nrf52_erratas.h ****          || defined (NRF52832_XXAB) || defined (DEVELOP_IN_NRF52832)
2412:./Include/nrf52_erratas.h ****             uint32_t var1 = ((*(uint32_t *)0xF0000FE0ul) & 0x000000FFul);
2413:./Include/nrf52_erratas.h ****             uint32_t var2 = ((*(uint32_t *)0xF0000FE8ul) & 0x000000F0ul) >> 4;
2414:./Include/nrf52_erratas.h ****         #endif
2415:./Include/nrf52_erratas.h ****         #if defined (NRF52832_XXAA) || defined (DEVELOP_IN_NRF52832)\
2416:./Include/nrf52_erratas.h ****          || defined (NRF52832_XXAB) || defined (DEVELOP_IN_NRF52832)
2417:./Include/nrf52_erratas.h ****             if (var1 == 0x06)
2418:./Include/nrf52_erratas.h ****             {
2419:./Include/nrf52_erratas.h ****                 switch(var2)
2420:./Include/nrf52_erratas.h ****                 {
2421:./Include/nrf52_erratas.h ****                     case 0x03ul:
2422:./Include/nrf52_erratas.h ****                         return true;
2423:./Include/nrf52_erratas.h ****                     case 0x04ul:
2424:./Include/nrf52_erratas.h ****                         return false;
2425:./Include/nrf52_erratas.h ****                     case 0x05ul:
2426:./Include/nrf52_erratas.h ****                         return false;
2427:./Include/nrf52_erratas.h ****                     case 0x06ul:
2428:./Include/nrf52_erratas.h ****                         return false;
2429:./Include/nrf52_erratas.h ****                     case 0x07ul:
2430:./Include/nrf52_erratas.h ****                         return false;
2431:./Include/nrf52_erratas.h ****                     default:
2432:./Include/nrf52_erratas.h ****                         return false;
2433:./Include/nrf52_erratas.h ****                 }
2434:./Include/nrf52_erratas.h ****             }
2435:./Include/nrf52_erratas.h ****         #endif
2436:./Include/nrf52_erratas.h ****         return false;
2437:./Include/nrf52_erratas.h ****     #endif
2438:./Include/nrf52_erratas.h **** }
2439:./Include/nrf52_erratas.h **** 
2440:./Include/nrf52_erratas.h **** /* ========= Errata 48 ========= */
2441:./Include/nrf52_erratas.h **** #if    defined (NRF52832_XXAA) || defined (DEVELOP_IN_NRF52832) \
2442:./Include/nrf52_erratas.h ****     || defined (NRF52832_XXAB) || defined (DEVELOP_IN_NRF52832)
2443:./Include/nrf52_erratas.h ****     #define NRF52_ERRATA_48_PRESENT 1
2444:./Include/nrf52_erratas.h **** #else
2445:./Include/nrf52_erratas.h ****     #define NRF52_ERRATA_48_PRESENT 0
2446:./Include/nrf52_erratas.h **** #endif
2447:./Include/nrf52_erratas.h **** 
2448:./Include/nrf52_erratas.h **** #ifndef NRF52_ERRATA_48_ENABLE_WORKAROUND
2449:./Include/nrf52_erratas.h ****     #define NRF52_ERRATA_48_ENABLE_WORKAROUND NRF52_ERRATA_48_PRESENT
2450:./Include/nrf52_erratas.h **** #endif
2451:./Include/nrf52_erratas.h **** 
2452:./Include/nrf52_erratas.h **** static bool nrf52_errata_48(void)
2453:./Include/nrf52_erratas.h **** {
2454:./Include/nrf52_erratas.h ****     #ifndef NRF52_SERIES
2455:./Include/nrf52_erratas.h ****         return false;
2456:./Include/nrf52_erratas.h ****     #else
2457:./Include/nrf52_erratas.h ****         #if defined (NRF52832_XXAA) || defined (DEVELOP_IN_NRF52832)\
2458:./Include/nrf52_erratas.h ****          || defined (NRF52832_XXAB) || defined (DEVELOP_IN_NRF52832)
2459:./Include/nrf52_erratas.h ****             uint32_t var1 = ((*(uint32_t *)0xF0000FE0ul) & 0x000000FFul);
2460:./Include/nrf52_erratas.h ****             uint32_t var2 = ((*(uint32_t *)0xF0000FE8ul) & 0x000000F0ul) >> 4;
2461:./Include/nrf52_erratas.h ****         #endif
2462:./Include/nrf52_erratas.h ****         #if defined (NRF52832_XXAA) || defined (DEVELOP_IN_NRF52832)\
2463:./Include/nrf52_erratas.h ****          || defined (NRF52832_XXAB) || defined (DEVELOP_IN_NRF52832)
2464:./Include/nrf52_erratas.h ****             if (var1 == 0x06)
2465:./Include/nrf52_erratas.h ****             {
2466:./Include/nrf52_erratas.h ****                 switch(var2)
2467:./Include/nrf52_erratas.h ****                 {
2468:./Include/nrf52_erratas.h ****                     case 0x03ul:
2469:./Include/nrf52_erratas.h ****                         return true;
2470:./Include/nrf52_erratas.h ****                     case 0x04ul:
2471:./Include/nrf52_erratas.h ****                         return false;
2472:./Include/nrf52_erratas.h ****                     case 0x05ul:
2473:./Include/nrf52_erratas.h ****                         return false;
2474:./Include/nrf52_erratas.h ****                     case 0x06ul:
2475:./Include/nrf52_erratas.h ****                         return false;
2476:./Include/nrf52_erratas.h ****                     case 0x07ul:
2477:./Include/nrf52_erratas.h ****                         return false;
2478:./Include/nrf52_erratas.h ****                     default:
2479:./Include/nrf52_erratas.h ****                         return false;
2480:./Include/nrf52_erratas.h ****                 }
2481:./Include/nrf52_erratas.h ****             }
2482:./Include/nrf52_erratas.h ****         #endif
2483:./Include/nrf52_erratas.h ****         return false;
2484:./Include/nrf52_erratas.h ****     #endif
2485:./Include/nrf52_erratas.h **** }
2486:./Include/nrf52_erratas.h **** 
2487:./Include/nrf52_erratas.h **** /* ========= Errata 49 ========= */
2488:./Include/nrf52_erratas.h **** #if    defined (NRF52832_XXAA) || defined (DEVELOP_IN_NRF52832) \
2489:./Include/nrf52_erratas.h ****     || defined (NRF52832_XXAB) || defined (DEVELOP_IN_NRF52832)
2490:./Include/nrf52_erratas.h ****     #define NRF52_ERRATA_49_PRESENT 1
2491:./Include/nrf52_erratas.h **** #else
2492:./Include/nrf52_erratas.h ****     #define NRF52_ERRATA_49_PRESENT 0
2493:./Include/nrf52_erratas.h **** #endif
2494:./Include/nrf52_erratas.h **** 
2495:./Include/nrf52_erratas.h **** #ifndef NRF52_ERRATA_49_ENABLE_WORKAROUND
2496:./Include/nrf52_erratas.h ****     #define NRF52_ERRATA_49_ENABLE_WORKAROUND NRF52_ERRATA_49_PRESENT
2497:./Include/nrf52_erratas.h **** #endif
2498:./Include/nrf52_erratas.h **** 
2499:./Include/nrf52_erratas.h **** static bool nrf52_errata_49(void)
2500:./Include/nrf52_erratas.h **** {
2501:./Include/nrf52_erratas.h ****     #ifndef NRF52_SERIES
2502:./Include/nrf52_erratas.h ****         return false;
2503:./Include/nrf52_erratas.h ****     #else
2504:./Include/nrf52_erratas.h ****         #if defined (NRF52832_XXAA) || defined (DEVELOP_IN_NRF52832)\
2505:./Include/nrf52_erratas.h ****          || defined (NRF52832_XXAB) || defined (DEVELOP_IN_NRF52832)
2506:./Include/nrf52_erratas.h ****             uint32_t var1 = ((*(uint32_t *)0xF0000FE0ul) & 0x000000FFul);
2507:./Include/nrf52_erratas.h ****             uint32_t var2 = ((*(uint32_t *)0xF0000FE8ul) & 0x000000F0ul) >> 4;
2508:./Include/nrf52_erratas.h ****         #endif
2509:./Include/nrf52_erratas.h ****         #if defined (NRF52832_XXAA) || defined (DEVELOP_IN_NRF52832)\
2510:./Include/nrf52_erratas.h ****          || defined (NRF52832_XXAB) || defined (DEVELOP_IN_NRF52832)
2511:./Include/nrf52_erratas.h ****             if (var1 == 0x06)
2512:./Include/nrf52_erratas.h ****             {
2513:./Include/nrf52_erratas.h ****                 switch(var2)
2514:./Include/nrf52_erratas.h ****                 {
2515:./Include/nrf52_erratas.h ****                     case 0x03ul:
2516:./Include/nrf52_erratas.h ****                         return true;
2517:./Include/nrf52_erratas.h ****                     case 0x04ul:
2518:./Include/nrf52_erratas.h ****                         return false;
2519:./Include/nrf52_erratas.h ****                     case 0x05ul:
2520:./Include/nrf52_erratas.h ****                         return false;
2521:./Include/nrf52_erratas.h ****                     case 0x06ul:
2522:./Include/nrf52_erratas.h ****                         return false;
2523:./Include/nrf52_erratas.h ****                     case 0x07ul:
2524:./Include/nrf52_erratas.h ****                         return false;
2525:./Include/nrf52_erratas.h ****                     default:
2526:./Include/nrf52_erratas.h ****                         return false;
2527:./Include/nrf52_erratas.h ****                 }
2528:./Include/nrf52_erratas.h ****             }
2529:./Include/nrf52_erratas.h ****         #endif
2530:./Include/nrf52_erratas.h ****         return false;
2531:./Include/nrf52_erratas.h ****     #endif
2532:./Include/nrf52_erratas.h **** }
2533:./Include/nrf52_erratas.h **** 
2534:./Include/nrf52_erratas.h **** /* ========= Errata 51 ========= */
2535:./Include/nrf52_erratas.h **** #if    defined (NRF52832_XXAA) || defined (DEVELOP_IN_NRF52832) \
2536:./Include/nrf52_erratas.h ****     || defined (NRF52832_XXAB) || defined (DEVELOP_IN_NRF52832)
2537:./Include/nrf52_erratas.h ****     #define NRF52_ERRATA_51_PRESENT 1
2538:./Include/nrf52_erratas.h **** #else
2539:./Include/nrf52_erratas.h ****     #define NRF52_ERRATA_51_PRESENT 0
2540:./Include/nrf52_erratas.h **** #endif
2541:./Include/nrf52_erratas.h **** 
2542:./Include/nrf52_erratas.h **** #ifndef NRF52_ERRATA_51_ENABLE_WORKAROUND
2543:./Include/nrf52_erratas.h ****     #define NRF52_ERRATA_51_ENABLE_WORKAROUND NRF52_ERRATA_51_PRESENT
2544:./Include/nrf52_erratas.h **** #endif
2545:./Include/nrf52_erratas.h **** 
2546:./Include/nrf52_erratas.h **** static bool nrf52_errata_51(void)
2547:./Include/nrf52_erratas.h **** {
2548:./Include/nrf52_erratas.h ****     #ifndef NRF52_SERIES
2549:./Include/nrf52_erratas.h ****         return false;
2550:./Include/nrf52_erratas.h ****     #else
2551:./Include/nrf52_erratas.h ****         #if defined (NRF52832_XXAA) || defined (DEVELOP_IN_NRF52832)\
2552:./Include/nrf52_erratas.h ****          || defined (NRF52832_XXAB) || defined (DEVELOP_IN_NRF52832)
2553:./Include/nrf52_erratas.h ****             uint32_t var1;
2554:./Include/nrf52_erratas.h ****             uint32_t var2;
2555:./Include/nrf52_erratas.h **** 
2556:./Include/nrf52_erratas.h ****             if (*(uint32_t *)0x10000130ul == 0xFFFFFFFF)
2557:./Include/nrf52_erratas.h ****             {
2558:./Include/nrf52_erratas.h ****                 var1 = ((*(uint32_t *)0xF0000FE0ul) & 0x000000FFul);
2559:./Include/nrf52_erratas.h ****                 var2 = ((*(uint32_t *)0xF0000FE8ul) & 0x000000F0ul) >> 4;
2560:./Include/nrf52_erratas.h ****             }
2561:./Include/nrf52_erratas.h ****             else
2562:./Include/nrf52_erratas.h ****             {
2563:./Include/nrf52_erratas.h ****                 var1 = *(uint32_t *)0x10000130ul;
2564:./Include/nrf52_erratas.h ****                 var2 = *(uint32_t *)0x10000134ul;
2565:./Include/nrf52_erratas.h ****             }
2566:./Include/nrf52_erratas.h ****         #endif
2567:./Include/nrf52_erratas.h ****         #if defined (NRF52832_XXAA) || defined (DEVELOP_IN_NRF52832)\
2568:./Include/nrf52_erratas.h ****          || defined (NRF52832_XXAB) || defined (DEVELOP_IN_NRF52832)
2569:./Include/nrf52_erratas.h ****             if (var1 == 0x06)
2570:./Include/nrf52_erratas.h ****             {
2571:./Include/nrf52_erratas.h ****                 switch(var2)
2572:./Include/nrf52_erratas.h ****                 {
2573:./Include/nrf52_erratas.h ****                     case 0x03ul:
2574:./Include/nrf52_erratas.h ****                         return false;
2575:./Include/nrf52_erratas.h ****                     case 0x04ul:
2576:./Include/nrf52_erratas.h ****                         return true;
2577:./Include/nrf52_erratas.h ****                     case 0x05ul:
2578:./Include/nrf52_erratas.h ****                         return true;
2579:./Include/nrf52_erratas.h ****                     case 0x06ul:
2580:./Include/nrf52_erratas.h ****                         return true;
2581:./Include/nrf52_erratas.h ****                     case 0x07ul:
2582:./Include/nrf52_erratas.h ****                         return true;
2583:./Include/nrf52_erratas.h ****                     default:
2584:./Include/nrf52_erratas.h ****                         return true;
2585:./Include/nrf52_erratas.h ****                 }
2586:./Include/nrf52_erratas.h ****             }
2587:./Include/nrf52_erratas.h ****         #endif
2588:./Include/nrf52_erratas.h ****         return false;
2589:./Include/nrf52_erratas.h ****     #endif
2590:./Include/nrf52_erratas.h **** }
2591:./Include/nrf52_erratas.h **** 
2592:./Include/nrf52_erratas.h **** /* ========= Errata 54 ========= */
2593:./Include/nrf52_erratas.h **** #if    defined (NRF52832_XXAA) || defined (DEVELOP_IN_NRF52832) \
2594:./Include/nrf52_erratas.h ****     || defined (NRF52832_XXAB) || defined (DEVELOP_IN_NRF52832) \
2595:./Include/nrf52_erratas.h ****     || defined (NRF52840_XXAA) || defined (DEVELOP_IN_NRF52840)
2596:./Include/nrf52_erratas.h ****     #define NRF52_ERRATA_54_PRESENT 1
2597:./Include/nrf52_erratas.h **** #else
2598:./Include/nrf52_erratas.h ****     #define NRF52_ERRATA_54_PRESENT 0
2599:./Include/nrf52_erratas.h **** #endif
2600:./Include/nrf52_erratas.h **** 
2601:./Include/nrf52_erratas.h **** #ifndef NRF52_ERRATA_54_ENABLE_WORKAROUND
2602:./Include/nrf52_erratas.h ****     #define NRF52_ERRATA_54_ENABLE_WORKAROUND NRF52_ERRATA_54_PRESENT
2603:./Include/nrf52_erratas.h **** #endif
2604:./Include/nrf52_erratas.h **** 
2605:./Include/nrf52_erratas.h **** static bool nrf52_errata_54(void)
2606:./Include/nrf52_erratas.h **** {
2607:./Include/nrf52_erratas.h ****     #ifndef NRF52_SERIES
2608:./Include/nrf52_erratas.h ****         return false;
2609:./Include/nrf52_erratas.h ****     #else
2610:./Include/nrf52_erratas.h ****         #if defined (NRF52832_XXAA) || defined (DEVELOP_IN_NRF52832)\
2611:./Include/nrf52_erratas.h ****          || defined (NRF52832_XXAB) || defined (DEVELOP_IN_NRF52832)
2612:./Include/nrf52_erratas.h ****             uint32_t var1;
2613:./Include/nrf52_erratas.h ****             uint32_t var2;
2614:./Include/nrf52_erratas.h **** 
2615:./Include/nrf52_erratas.h ****             if (*(uint32_t *)0x10000130ul == 0xFFFFFFFF)
2616:./Include/nrf52_erratas.h ****             {
2617:./Include/nrf52_erratas.h ****                 var1 = ((*(uint32_t *)0xF0000FE0ul) & 0x000000FFul);
2618:./Include/nrf52_erratas.h ****                 var2 = ((*(uint32_t *)0xF0000FE8ul) & 0x000000F0ul) >> 4;
2619:./Include/nrf52_erratas.h ****             }
2620:./Include/nrf52_erratas.h ****             else
2621:./Include/nrf52_erratas.h ****             {
2622:./Include/nrf52_erratas.h ****                 var1 = *(uint32_t *)0x10000130ul;
2623:./Include/nrf52_erratas.h ****                 var2 = *(uint32_t *)0x10000134ul;
2624:./Include/nrf52_erratas.h ****             }
2625:./Include/nrf52_erratas.h ****         #elif defined (NRF52840_XXAA) || defined (DEVELOP_IN_NRF52840)
2626:./Include/nrf52_erratas.h ****             uint32_t var1 = *(uint32_t *)0x10000130ul;
2627:./Include/nrf52_erratas.h ****             uint32_t var2 = *(uint32_t *)0x10000134ul;
2628:./Include/nrf52_erratas.h ****         #endif
2629:./Include/nrf52_erratas.h ****         #if defined (NRF52832_XXAA) || defined (DEVELOP_IN_NRF52832)\
2630:./Include/nrf52_erratas.h ****          || defined (NRF52832_XXAB) || defined (DEVELOP_IN_NRF52832)
2631:./Include/nrf52_erratas.h ****             if (var1 == 0x06)
2632:./Include/nrf52_erratas.h ****             {
2633:./Include/nrf52_erratas.h ****                 switch(var2)
2634:./Include/nrf52_erratas.h ****                 {
2635:./Include/nrf52_erratas.h ****                     case 0x03ul:
2636:./Include/nrf52_erratas.h ****                         return false;
2637:./Include/nrf52_erratas.h ****                     case 0x04ul:
2638:./Include/nrf52_erratas.h ****                         return true;
2639:./Include/nrf52_erratas.h ****                     case 0x05ul:
2640:./Include/nrf52_erratas.h ****                         return true;
2641:./Include/nrf52_erratas.h ****                     case 0x06ul:
2642:./Include/nrf52_erratas.h ****                         return true;
2643:./Include/nrf52_erratas.h ****                     case 0x07ul:
2644:./Include/nrf52_erratas.h ****                         return true;
2645:./Include/nrf52_erratas.h ****                     default:
2646:./Include/nrf52_erratas.h ****                         return true;
2647:./Include/nrf52_erratas.h ****                 }
2648:./Include/nrf52_erratas.h ****             }
2649:./Include/nrf52_erratas.h ****         #endif
2650:./Include/nrf52_erratas.h ****         #if defined (NRF52840_XXAA) || defined (DEVELOP_IN_NRF52840)
2651:./Include/nrf52_erratas.h ****             if (var1 == 0x08)
2652:./Include/nrf52_erratas.h ****             {
2653:./Include/nrf52_erratas.h ****                 switch(var2)
2654:./Include/nrf52_erratas.h ****                 {
2655:./Include/nrf52_erratas.h ****                     case 0x00ul:
2656:./Include/nrf52_erratas.h ****                         return true;
2657:./Include/nrf52_erratas.h ****                     case 0x01ul:
2658:./Include/nrf52_erratas.h ****                         return false;
2659:./Include/nrf52_erratas.h ****                     case 0x02ul:
2660:./Include/nrf52_erratas.h ****                         return false;
2661:./Include/nrf52_erratas.h ****                     case 0x03ul:
2662:./Include/nrf52_erratas.h ****                         return false;
2663:./Include/nrf52_erratas.h ****                     case 0x04ul:
2664:./Include/nrf52_erratas.h ****                         return false;
2665:./Include/nrf52_erratas.h ****                     case 0x05ul:
2666:./Include/nrf52_erratas.h ****                         return false;
2667:./Include/nrf52_erratas.h ****                     default:
2668:./Include/nrf52_erratas.h ****                         return false;
2669:./Include/nrf52_erratas.h ****                 }
2670:./Include/nrf52_erratas.h ****             }
2671:./Include/nrf52_erratas.h ****         #endif
2672:./Include/nrf52_erratas.h ****         return false;
2673:./Include/nrf52_erratas.h ****     #endif
2674:./Include/nrf52_erratas.h **** }
2675:./Include/nrf52_erratas.h **** 
2676:./Include/nrf52_erratas.h **** /* ========= Errata 55 ========= */
2677:./Include/nrf52_erratas.h **** #if    defined (NRF52820_XXAA) || defined (DEVELOP_IN_NRF52820) \
2678:./Include/nrf52_erratas.h ****     || defined (NRF52832_XXAA) || defined (DEVELOP_IN_NRF52832) \
2679:./Include/nrf52_erratas.h ****     || defined (NRF52832_XXAB) || defined (DEVELOP_IN_NRF52832) \
2680:./Include/nrf52_erratas.h ****     || defined (NRF52833_XXAA) || defined (DEVELOP_IN_NRF52833) \
2681:./Include/nrf52_erratas.h ****     || defined (NRF52840_XXAA) || defined (DEVELOP_IN_NRF52840)
2682:./Include/nrf52_erratas.h ****     #define NRF52_ERRATA_55_PRESENT 1
2683:./Include/nrf52_erratas.h **** #else
2684:./Include/nrf52_erratas.h ****     #define NRF52_ERRATA_55_PRESENT 0
2685:./Include/nrf52_erratas.h **** #endif
2686:./Include/nrf52_erratas.h **** 
2687:./Include/nrf52_erratas.h **** #ifndef NRF52_ERRATA_55_ENABLE_WORKAROUND
2688:./Include/nrf52_erratas.h ****     #define NRF52_ERRATA_55_ENABLE_WORKAROUND NRF52_ERRATA_55_PRESENT
2689:./Include/nrf52_erratas.h **** #endif
2690:./Include/nrf52_erratas.h **** 
2691:./Include/nrf52_erratas.h **** static bool nrf52_errata_55(void)
2692:./Include/nrf52_erratas.h **** {
2693:./Include/nrf52_erratas.h ****     #ifndef NRF52_SERIES
2694:./Include/nrf52_erratas.h ****         return false;
2695:./Include/nrf52_erratas.h ****     #else
2696:./Include/nrf52_erratas.h ****         #if defined (NRF52832_XXAA) || defined (DEVELOP_IN_NRF52832)\
2697:./Include/nrf52_erratas.h ****          || defined (NRF52832_XXAB) || defined (DEVELOP_IN_NRF52832)
2698:./Include/nrf52_erratas.h ****             uint32_t var1;
2699:./Include/nrf52_erratas.h ****             uint32_t var2;
2700:./Include/nrf52_erratas.h **** 
2701:./Include/nrf52_erratas.h ****             if (*(uint32_t *)0x10000130ul == 0xFFFFFFFF)
2702:./Include/nrf52_erratas.h ****             {
2703:./Include/nrf52_erratas.h ****                 var1 = ((*(uint32_t *)0xF0000FE0ul) & 0x000000FFul);
2704:./Include/nrf52_erratas.h ****                 var2 = ((*(uint32_t *)0xF0000FE8ul) & 0x000000F0ul) >> 4;
2705:./Include/nrf52_erratas.h ****             }
2706:./Include/nrf52_erratas.h ****             else
2707:./Include/nrf52_erratas.h ****             {
2708:./Include/nrf52_erratas.h ****                 var1 = *(uint32_t *)0x10000130ul;
2709:./Include/nrf52_erratas.h ****                 var2 = *(uint32_t *)0x10000134ul;
2710:./Include/nrf52_erratas.h ****             }
2711:./Include/nrf52_erratas.h ****         #elif defined (NRF52820_XXAA) || defined (DEVELOP_IN_NRF52820)\
2712:./Include/nrf52_erratas.h ****          || defined (NRF52833_XXAA) || defined (DEVELOP_IN_NRF52833)\
2713:./Include/nrf52_erratas.h ****          || defined (NRF52840_XXAA) || defined (DEVELOP_IN_NRF52840)
2714:./Include/nrf52_erratas.h ****             uint32_t var1 = *(uint32_t *)0x10000130ul;
2715:./Include/nrf52_erratas.h ****             uint32_t var2 = *(uint32_t *)0x10000134ul;
2716:./Include/nrf52_erratas.h ****         #endif
2717:./Include/nrf52_erratas.h ****         #if defined (NRF52832_XXAA) || defined (DEVELOP_IN_NRF52832)\
2718:./Include/nrf52_erratas.h ****          || defined (NRF52832_XXAB) || defined (DEVELOP_IN_NRF52832)
2719:./Include/nrf52_erratas.h ****             if (var1 == 0x06)
2720:./Include/nrf52_erratas.h ****             {
2721:./Include/nrf52_erratas.h ****                 switch(var2)
2722:./Include/nrf52_erratas.h ****                 {
2723:./Include/nrf52_erratas.h ****                     case 0x03ul:
2724:./Include/nrf52_erratas.h ****                         return false;
2725:./Include/nrf52_erratas.h ****                     case 0x04ul:
2726:./Include/nrf52_erratas.h ****                         return true;
2727:./Include/nrf52_erratas.h ****                     case 0x05ul:
2728:./Include/nrf52_erratas.h ****                         return true;
2729:./Include/nrf52_erratas.h ****                     case 0x06ul:
2730:./Include/nrf52_erratas.h ****                         return true;
2731:./Include/nrf52_erratas.h ****                     case 0x07ul:
2732:./Include/nrf52_erratas.h ****                         return true;
2733:./Include/nrf52_erratas.h ****                     default:
2734:./Include/nrf52_erratas.h ****                         return true;
2735:./Include/nrf52_erratas.h ****                 }
2736:./Include/nrf52_erratas.h ****             }
2737:./Include/nrf52_erratas.h ****         #endif
2738:./Include/nrf52_erratas.h ****         #if defined (NRF52840_XXAA) || defined (DEVELOP_IN_NRF52840)
2739:./Include/nrf52_erratas.h ****             if (var1 == 0x08)
2740:./Include/nrf52_erratas.h ****             {
2741:./Include/nrf52_erratas.h ****                 switch(var2)
2742:./Include/nrf52_erratas.h ****                 {
2743:./Include/nrf52_erratas.h ****                     case 0x00ul:
2744:./Include/nrf52_erratas.h ****                         return true;
2745:./Include/nrf52_erratas.h ****                     case 0x01ul:
2746:./Include/nrf52_erratas.h ****                         return true;
2747:./Include/nrf52_erratas.h ****                     case 0x02ul:
2748:./Include/nrf52_erratas.h ****                         return true;
2749:./Include/nrf52_erratas.h ****                     case 0x03ul:
2750:./Include/nrf52_erratas.h ****                         return true;
2751:./Include/nrf52_erratas.h ****                     case 0x04ul:
2752:./Include/nrf52_erratas.h ****                         return true;
2753:./Include/nrf52_erratas.h ****                     case 0x05ul:
2754:./Include/nrf52_erratas.h ****                         return true;
2755:./Include/nrf52_erratas.h ****                     default:
2756:./Include/nrf52_erratas.h ****                         return true;
2757:./Include/nrf52_erratas.h ****                 }
2758:./Include/nrf52_erratas.h ****             }
2759:./Include/nrf52_erratas.h ****         #endif
2760:./Include/nrf52_erratas.h ****         #if defined (NRF52833_XXAA) || defined (DEVELOP_IN_NRF52833)
2761:./Include/nrf52_erratas.h ****             if (var1 == 0x0D)
2762:./Include/nrf52_erratas.h ****             {
2763:./Include/nrf52_erratas.h ****                 switch(var2)
2764:./Include/nrf52_erratas.h ****                 {
2765:./Include/nrf52_erratas.h ****                     case 0x00ul:
2766:./Include/nrf52_erratas.h ****                         return true;
2767:./Include/nrf52_erratas.h ****                     case 0x01ul:
2768:./Include/nrf52_erratas.h ****                         return true;
2769:./Include/nrf52_erratas.h ****                     default:
2770:./Include/nrf52_erratas.h ****                         return true;
2771:./Include/nrf52_erratas.h ****                 }
2772:./Include/nrf52_erratas.h ****             }
2773:./Include/nrf52_erratas.h ****         #endif
2774:./Include/nrf52_erratas.h ****         #if defined (NRF52820_XXAA) || defined (DEVELOP_IN_NRF52820)
2775:./Include/nrf52_erratas.h ****             if (var1 == 0x10)
2776:./Include/nrf52_erratas.h ****             {
2777:./Include/nrf52_erratas.h ****                 switch(var2)
2778:./Include/nrf52_erratas.h ****                 {
2779:./Include/nrf52_erratas.h ****                     case 0x00ul:
2780:./Include/nrf52_erratas.h ****                         return true;
2781:./Include/nrf52_erratas.h ****                     case 0x01ul:
2782:./Include/nrf52_erratas.h ****                         return true;
2783:./Include/nrf52_erratas.h ****                     case 0x02ul:
2784:./Include/nrf52_erratas.h ****                         return false;
2785:./Include/nrf52_erratas.h ****                     case 0x03ul:
2786:./Include/nrf52_erratas.h ****                         return false;
2787:./Include/nrf52_erratas.h ****                     default:
2788:./Include/nrf52_erratas.h ****                         return false;
2789:./Include/nrf52_erratas.h ****                 }
2790:./Include/nrf52_erratas.h ****             }
2791:./Include/nrf52_erratas.h ****         #endif
