   1              		.cpu cortex-m4
   2              		.arch armv7e-m
   3              		.fpu fpv4-sp-d16
   4              		.eabi_attribute 27, 1
   5              		.eabi_attribute 28, 1
   6              		.eabi_attribute 20, 1
   7              		.eabi_attribute 21, 1
   8              		.eabi_attribute 23, 3
   9              		.eabi_attribute 24, 1
  10              		.eabi_attribute 25, 1
  11              		.eabi_attribute 26, 1
  12              		.eabi_attribute 30, 2
  13              		.eabi_attribute 34, 1
  14              		.eabi_attribute 18, 4
  15              		.file	"printf.c"
  16              		.text
  17              	.Ltext0:
  18              		.cfi_sections	.debug_frame
  19              		.file 1 "printf.c"
  20              		.section	.text._out_buffer,"ax",%progbits
  21              		.align	1
  22              		.p2align 2,,3
  23              		.syntax unified
  24              		.thumb
  25              		.thumb_func
  27              	_out_buffer:
  28              	.LVL0:
  29              	.LFB0:
   1:printf.c      **** ///////////////////////////////////////////////////////////////////////////////
   2:printf.c      **** // \author (c) Marco Paland (info@paland.com)
   3:printf.c      **** //             2014-2019, PALANDesign Hannover, Germany
   4:printf.c      **** //
   5:printf.c      **** // \license The MIT License (MIT)
   6:printf.c      **** //
   7:printf.c      **** // Permission is hereby granted, free of charge, to any person obtaining a copy
   8:printf.c      **** // of this software and associated documentation files (the "Software"), to deal
   9:printf.c      **** // in the Software without restriction, including without limitation the rights
  10:printf.c      **** // to use, copy, modify, merge, publish, distribute, sublicense, and/or sell
  11:printf.c      **** // copies of the Software, and to permit persons to whom the Software is
  12:printf.c      **** // furnished to do so, subject to the following conditions:
  13:printf.c      **** //
  14:printf.c      **** // The above copyright notice and this permission notice shall be included in
  15:printf.c      **** // all copies or substantial portions of the Software.
  16:printf.c      **** //
  17:printf.c      **** // THE SOFTWARE IS PROVIDED "AS IS", WITHOUT WARRANTY OF ANY KIND, EXPRESS OR
  18:printf.c      **** // IMPLIED, INCLUDING BUT NOT LIMITED TO THE WARRANTIES OF MERCHANTABILITY,
  19:printf.c      **** // FITNESS FOR A PARTICULAR PURPOSE AND NONINFRINGEMENT. IN NO EVENT SHALL THE
  20:printf.c      **** // AUTHORS OR COPYRIGHT HOLDERS BE LIABLE FOR ANY CLAIM, DAMAGES OR OTHER
  21:printf.c      **** // LIABILITY, WHETHER IN AN ACTION OF CONTRACT, TORT OR OTHERWISE, ARISING FROM,
  22:printf.c      **** // OUT OF OR IN CONNECTION WITH THE SOFTWARE OR THE USE OR OTHER DEALINGS IN
  23:printf.c      **** // THE SOFTWARE.
  24:printf.c      **** //
  25:printf.c      **** // \brief Tiny printf, sprintf and (v)snprintf implementation, optimized for speed on
  26:printf.c      **** //        embedded systems with a very limited resources. These routines are thread
  27:printf.c      **** //        safe and reentrant!
  28:printf.c      **** //        Use this instead of the bloated standard/newlib printf cause these use
  29:printf.c      **** //        malloc for printf (and may not be thread safe).
  30:printf.c      **** //
  31:printf.c      **** ///////////////////////////////////////////////////////////////////////////////
  32:printf.c      **** 
  33:printf.c      **** #include <stdbool.h>
  34:printf.c      **** #include <stdint.h>
  35:printf.c      **** 
  36:printf.c      **** #include "printf.h"
  37:printf.c      **** 
  38:printf.c      **** 
  39:printf.c      **** // define this globally (e.g. gcc -DPRINTF_INCLUDE_CONFIG_H ...) to include the
  40:printf.c      **** // printf_config.h header file
  41:printf.c      **** // default: undefined
  42:printf.c      **** #ifdef PRINTF_INCLUDE_CONFIG_H
  43:printf.c      **** #include "printf_config.h"
  44:printf.c      **** #endif
  45:printf.c      **** 
  46:printf.c      **** 
  47:printf.c      **** // 'ntoa' conversion buffer size, this must be big enough to hold one converted
  48:printf.c      **** // numeric number including padded zeros (dynamically created on stack)
  49:printf.c      **** // default: 32 byte
  50:printf.c      **** #ifndef PRINTF_NTOA_BUFFER_SIZE
  51:printf.c      **** #define PRINTF_NTOA_BUFFER_SIZE    32U
  52:printf.c      **** #endif
  53:printf.c      **** 
  54:printf.c      **** // 'ftoa' conversion buffer size, this must be big enough to hold one converted
  55:printf.c      **** // float number including padded zeros (dynamically created on stack)
  56:printf.c      **** // default: 32 byte
  57:printf.c      **** #ifndef PRINTF_FTOA_BUFFER_SIZE
  58:printf.c      **** #define PRINTF_FTOA_BUFFER_SIZE    32U
  59:printf.c      **** #endif
  60:printf.c      **** 
  61:printf.c      **** // support for the floating point type (%f)
  62:printf.c      **** // default: activated
  63:printf.c      **** #ifndef PRINTF_DISABLE_SUPPORT_FLOAT
  64:printf.c      **** #define PRINTF_SUPPORT_FLOAT
  65:printf.c      **** #endif
  66:printf.c      **** 
  67:printf.c      **** // support for the long long types (%llu or %p)
  68:printf.c      **** // default: activated
  69:printf.c      **** #ifndef PRINTF_DISABLE_SUPPORT_LONG_LONG
  70:printf.c      **** #define PRINTF_SUPPORT_LONG_LONG
  71:printf.c      **** #endif
  72:printf.c      **** 
  73:printf.c      **** // support for the ptrdiff_t type (%t)
  74:printf.c      **** // ptrdiff_t is normally defined in <stddef.h> as long or long long type
  75:printf.c      **** // default: activated
  76:printf.c      **** #ifndef PRINTF_DISABLE_SUPPORT_PTRDIFF_T
  77:printf.c      **** #define PRINTF_SUPPORT_PTRDIFF_T
  78:printf.c      **** #endif
  79:printf.c      **** 
  80:printf.c      **** ///////////////////////////////////////////////////////////////////////////////
  81:printf.c      **** 
  82:printf.c      **** // internal flag definitions
  83:printf.c      **** #define FLAGS_ZEROPAD   (1U <<  0U)
  84:printf.c      **** #define FLAGS_LEFT      (1U <<  1U)
  85:printf.c      **** #define FLAGS_PLUS      (1U <<  2U)
  86:printf.c      **** #define FLAGS_SPACE     (1U <<  3U)
  87:printf.c      **** #define FLAGS_HASH      (1U <<  4U)
  88:printf.c      **** #define FLAGS_UPPERCASE (1U <<  5U)
  89:printf.c      **** #define FLAGS_CHAR      (1U <<  6U)
  90:printf.c      **** #define FLAGS_SHORT     (1U <<  7U)
  91:printf.c      **** #define FLAGS_LONG      (1U <<  8U)
  92:printf.c      **** #define FLAGS_LONG_LONG (1U <<  9U)
  93:printf.c      **** #define FLAGS_PRECISION (1U << 10U)
  94:printf.c      **** 
  95:printf.c      **** 
  96:printf.c      **** // output function type
  97:printf.c      **** typedef void (*out_fct_type)(char character, void* buffer, size_t idx, size_t maxlen);
  98:printf.c      **** 
  99:printf.c      **** 
 100:printf.c      **** // wrapper (used as buffer) for output function type
 101:printf.c      **** typedef struct {
 102:printf.c      ****   void  (*fct)(char character, void* arg);
 103:printf.c      ****   void* arg;
 104:printf.c      **** } out_fct_wrap_type;
 105:printf.c      **** 
 106:printf.c      **** 
 107:printf.c      **** // internal buffer output
 108:printf.c      **** static inline void _out_buffer(char character, void* buffer, size_t idx, size_t maxlen)
 109:printf.c      **** {
  30              		.loc 1 109 1 view -0
  31              		.cfi_startproc
  32              		@ args = 0, pretend = 0, frame = 0
  33              		@ frame_needed = 0, uses_anonymous_args = 0
  34              		@ link register save eliminated.
 110:printf.c      ****   if (idx < maxlen) {
  35              		.loc 1 110 3 view .LVU1
  36              		.loc 1 110 6 is_stmt 0 view .LVU2
  37 0000 9A42     		cmp	r2, r3
 111:printf.c      ****     ((char*)buffer)[idx] = character;
  38              		.loc 1 111 5 is_stmt 1 view .LVU3
  39              		.loc 1 111 26 is_stmt 0 view .LVU4
  40 0002 38BF     		it	cc
  41 0004 8854     		strbcc	r0, [r1, r2]
 112:printf.c      ****   }
 113:printf.c      **** }
  42              		.loc 1 113 1 view .LVU5
  43 0006 7047     		bx	lr
  44              		.cfi_endproc
  45              	.LFE0:
  47              		.section	.text._out_null,"ax",%progbits
  48              		.align	1
  49              		.p2align 2,,3
  50              		.syntax unified
  51              		.thumb
  52              		.thumb_func
  54              	_out_null:
  55              	.LVL1:
  56              	.LFB1:
 114:printf.c      **** 
 115:printf.c      **** 
 116:printf.c      **** // internal null output
 117:printf.c      **** static inline void _out_null(char character, void* buffer, size_t idx, size_t maxlen)
 118:printf.c      **** {
  57              		.loc 1 118 1 is_stmt 1 view -0
  58              		.cfi_startproc
  59              		@ args = 0, pretend = 0, frame = 0
  60              		@ frame_needed = 0, uses_anonymous_args = 0
  61              		@ link register save eliminated.
 119:printf.c      ****   (void)character; (void)buffer; (void)idx; (void)maxlen;
  62              		.loc 1 119 3 view .LVU7
  63              		.loc 1 119 20 view .LVU8
  64              		.loc 1 119 34 view .LVU9
  65              		.loc 1 119 45 view .LVU10
 120:printf.c      **** }
  66              		.loc 1 120 1 is_stmt 0 view .LVU11
  67 0000 7047     		bx	lr
  68              		.cfi_endproc
  69              	.LFE1:
  71 0002 00BF     		.section	.text._ntoa_format,"ax",%progbits
  72              		.align	1
  73              		.p2align 2,,3
  74              		.syntax unified
  75              		.thumb
  76              		.thumb_func
  78              	_ntoa_format:
  79              	.LVL2:
  80              	.LFB7:
 121:printf.c      **** 
 122:printf.c      **** 
 123:printf.c      **** // internal _putchar wrapper
 124:printf.c      **** static inline void _out_char(char character, void* buffer, size_t idx, size_t maxlen)
 125:printf.c      **** {
 126:printf.c      ****   (void)buffer; (void)idx; (void)maxlen;
 127:printf.c      ****   if (character) {
 128:printf.c      ****     _putchar(character);
 129:printf.c      ****   }
 130:printf.c      **** }
 131:printf.c      **** 
 132:printf.c      **** 
 133:printf.c      **** // internal output function wrapper
 134:printf.c      **** static inline void _out_fct(char character, void* buffer, size_t idx, size_t maxlen)
 135:printf.c      **** {
 136:printf.c      ****   (void)idx; (void)maxlen;
 137:printf.c      ****   if (character) {
 138:printf.c      ****     // buffer is the output fct pointer
 139:printf.c      ****     ((out_fct_wrap_type*)buffer)->fct(character, ((out_fct_wrap_type*)buffer)->arg);
 140:printf.c      ****   }
 141:printf.c      **** }
 142:printf.c      **** 
 143:printf.c      **** 
 144:printf.c      **** // internal secure strlen
 145:printf.c      **** // \return The length of the string (excluding the terminating 0) limited by 'maxsize'
 146:printf.c      **** static inline unsigned int _strnlen_s(const char* str, size_t maxsize)
 147:printf.c      **** {
 148:printf.c      ****   const char* s;
 149:printf.c      ****   for (s = str; *s && maxsize--; ++s);
 150:printf.c      ****   return (unsigned int)(s - str);
 151:printf.c      **** }
 152:printf.c      **** 
 153:printf.c      **** 
 154:printf.c      **** // internal test if char is a digit (0-9)
 155:printf.c      **** // \return true if char is a digit
 156:printf.c      **** static inline bool _is_digit(char ch)
 157:printf.c      **** {
 158:printf.c      ****   return (ch >= '0') && (ch <= '9');
 159:printf.c      **** }
 160:printf.c      **** 
 161:printf.c      **** 
 162:printf.c      **** // internal ASCII string to unsigned int conversion
 163:printf.c      **** static unsigned int _atoi(const char** str)
 164:printf.c      **** {
 165:printf.c      ****   unsigned int i = 0U;
 166:printf.c      ****   while (_is_digit(**str)) {
 167:printf.c      ****     i = i * 10U + (unsigned int)(*((*str)++) - '0');
 168:printf.c      ****   }
 169:printf.c      ****   return i;
 170:printf.c      **** }
 171:printf.c      **** 
 172:printf.c      **** 
 173:printf.c      **** // internal itoa format
 174:printf.c      **** static size_t _ntoa_format(out_fct_type out, char* buffer, size_t idx, size_t maxlen, char* buf, si
 175:printf.c      **** {
  81              		.loc 1 175 1 is_stmt 1 view -0
  82              		.cfi_startproc
  83              		@ args = 28, pretend = 0, frame = 16
  84              		@ frame_needed = 0, uses_anonymous_args = 0
  85              		.loc 1 175 1 is_stmt 0 view .LVU13
  86 0000 2DE9F04F 		push	{r4, r5, r6, r7, r8, r9, r10, fp, lr}
  87              		.cfi_def_cfa_offset 36
  88              		.cfi_offset 4, -36
  89              		.cfi_offset 5, -32
  90              		.cfi_offset 6, -28
  91              		.cfi_offset 7, -24
  92              		.cfi_offset 8, -20
  93              		.cfi_offset 9, -16
  94              		.cfi_offset 10, -12
  95              		.cfi_offset 11, -8
  96              		.cfi_offset 14, -4
  97 0004 85B0     		sub	sp, sp, #20
  98              		.cfi_def_cfa_offset 56
  99              		.loc 1 175 1 view .LVU14
 100 0006 9446     		mov	ip, r2
 101 0008 149C     		ldr	r4, [sp, #80]
 102 000a 0192     		str	r2, [sp, #4]
 176:printf.c      ****   const size_t start_idx = idx;
 177:printf.c      **** 
 178:printf.c      ****   // pad leading zeros
 179:printf.c      ****   if (!(flags & FLAGS_LEFT)) {
 103              		.loc 1 179 6 view .LVU15
 104 000c 14F00202 		ands	r2, r4, #2
 105              	.LVL3:
 175:printf.c      ****   const size_t start_idx = idx;
 106              		.loc 1 175 1 view .LVU16
 107 0010 0646     		mov	r6, r0
 108 0012 0F46     		mov	r7, r1
 109 0014 9846     		mov	r8, r3
 176:printf.c      ****   const size_t start_idx = idx;
 110              		.loc 1 176 3 is_stmt 1 view .LVU17
 111              	.LVL4:
 112              		.loc 1 179 3 view .LVU18
 175:printf.c      ****   const size_t start_idx = idx;
 113              		.loc 1 175 1 is_stmt 0 view .LVU19
 114 0016 DDE9125B 		ldrd	r5, fp, [sp, #72]
 115 001a DDF83890 		ldr	r9, [sp, #56]
 116 001e 0F9B     		ldr	r3, [sp, #60]
 117              	.LVL5:
 175:printf.c      ****   const size_t start_idx = idx;
 118              		.loc 1 175 1 view .LVU20
 119 0020 9DF84010 		ldrb	r1, [sp, #64]	@ zero_extendqisi2
 120              	.LVL6:
 121              		.loc 1 179 6 view .LVU21
 122 0024 0292     		str	r2, [sp, #8]
 180:printf.c      ****     if (width && (flags & FLAGS_ZEROPAD) && (negative || (flags & (FLAGS_PLUS | FLAGS_SPACE)))) {
 181:printf.c      ****       width--;
 182:printf.c      ****     }
 183:printf.c      ****     while ((len < prec) && (len < PRINTF_NTOA_BUFFER_SIZE)) {
 184:printf.c      ****       buf[len++] = '0';
 185:printf.c      ****     }
 186:printf.c      ****     while ((flags & FLAGS_ZEROPAD) && (len < width) && (len < PRINTF_NTOA_BUFFER_SIZE)) {
 187:printf.c      ****       buf[len++] = '0';
 188:printf.c      ****     }
 189:printf.c      ****   }
 190:printf.c      **** 
 191:printf.c      ****   // handle hash
 192:printf.c      ****   if (flags & FLAGS_HASH) {
 123              		.loc 1 192 13 view .LVU22
 124 0026 04F01000 		and	r0, r4, #16
 125              	.LVL7:
 179:printf.c      ****     if (width && (flags & FLAGS_ZEROPAD) && (negative || (flags & (FLAGS_PLUS | FLAGS_SPACE)))) {
 126              		.loc 1 179 6 view .LVU23
 127 002a 00F08980 		beq	.L6
 128              	.LVL8:
 129              		.loc 1 192 3 is_stmt 1 view .LVU24
 130              		.loc 1 192 6 is_stmt 0 view .LVU25
 131 002e E0B1     		cbz	r0, .L178
 132              	.LVL9:
 133              	.L7:
 193:printf.c      ****     if (!(flags & FLAGS_PRECISION) && len && ((len == prec) || (len == width))) {
 134              		.loc 1 193 5 is_stmt 1 view .LVU26
 135              		.loc 1 193 8 is_stmt 0 view .LVU27
 136 0030 6205     		lsls	r2, r4, #21
 137 0032 2FD4     		bmi	.L20
 138              		.loc 1 193 36 discriminator 1 view .LVU28
 139 0034 43BB     		cbnz	r3, .L29
 140              	.LVL10:
 141              	.L21:
 194:printf.c      ****       len--;
 195:printf.c      ****       if (len && (base == 16U)) {
 196:printf.c      ****         len--;
 197:printf.c      ****       }
 198:printf.c      ****     }
 199:printf.c      ****     if ((base == 16U) && !(flags & FLAGS_UPPERCASE) && (len < PRINTF_NTOA_BUFFER_SIZE)) {
 142              		.loc 1 199 5 is_stmt 1 view .LVU29
 143              		.loc 1 199 8 is_stmt 0 view .LVU30
 144 0036 119B     		ldr	r3, [sp, #68]
 145 0038 102B     		cmp	r3, #16
 146 003a 00F05981 		beq	.L179
 200:printf.c      ****       buf[len++] = 'x';
 201:printf.c      ****     }
 202:printf.c      ****     else if ((base == 16U) && (flags & FLAGS_UPPERCASE) && (len < PRINTF_NTOA_BUFFER_SIZE)) {
 203:printf.c      ****       buf[len++] = 'X';
 204:printf.c      ****     }
 205:printf.c      ****     else if ((base == 2U) && (len < PRINTF_NTOA_BUFFER_SIZE)) {
 147              		.loc 1 205 10 is_stmt 1 view .LVU31
 148              		.loc 1 205 13 is_stmt 0 view .LVU32
 149 003e 022B     		cmp	r3, #2
 150 0040 00F07F81 		beq	.L180
 151              	.LVL11:
 206:printf.c      ****       buf[len++] = 'b';
 207:printf.c      ****     }
 208:printf.c      ****     if (len < PRINTF_NTOA_BUFFER_SIZE) {
 209:printf.c      ****       buf[len++] = '0';
 152              		.loc 1 209 18 view .LVU33
 153 0044 3023     		movs	r3, #48
 154 0046 89F80030 		strb	r3, [r9]
 155              		.loc 1 209 14 view .LVU34
 156 004a 0122     		movs	r2, #1
 157 004c 04F00305 		and	r5, r4, #3
 158              	.LVL12:
 159              	.L23:
 210:printf.c      ****     }
 211:printf.c      ****   }
 212:printf.c      **** 
 213:printf.c      ****   if (len < PRINTF_NTOA_BUFFER_SIZE) {
 214:printf.c      ****     if (negative) {
 160              		.loc 1 214 5 is_stmt 1 view .LVU35
 161              		.loc 1 214 8 is_stmt 0 view .LVU36
 162 0050 0029     		cmp	r1, #0
 163 0052 00F0CE80 		beq	.L34
 164              	.L188:
 215:printf.c      ****       buf[len++] = '-';
 165              		.loc 1 215 7 is_stmt 1 view .LVU37
 166              		.loc 1 215 18 is_stmt 0 view .LVU38
 167 0056 2D23     		movs	r3, #45
 168 0058 09F80230 		strb	r3, [r9, r2]
 169              		.loc 1 215 14 view .LVU39
 170 005c 531C     		adds	r3, r2, #1
 171              	.LVL13:
 216:printf.c      ****     }
 217:printf.c      ****     else if (flags & FLAGS_PLUS) {
 218:printf.c      ****       buf[len++] = '+';  // ignore the space if the '+' exists
 219:printf.c      ****     }
 220:printf.c      ****     else if (flags & FLAGS_SPACE) {
 221:printf.c      ****       buf[len++] = ' ';
 222:printf.c      ****     }
 223:printf.c      ****   }
 224:printf.c      **** 
 225:printf.c      ****   // pad spaces up to given width
 226:printf.c      ****   if (!(flags & FLAGS_LEFT) && !(flags & FLAGS_ZEROPAD)) {
 172              		.loc 1 226 3 is_stmt 1 view .LVU40
 173              		.loc 1 226 6 is_stmt 0 view .LVU41
 174 005e 002D     		cmp	r5, #0
 175 0060 40F06681 		bne	.L168
 176              	.LVL14:
 177              	.LBB28:
 227:printf.c      ****     for (size_t i = len; i < width; i++) {
 178              		.loc 1 227 28 is_stmt 1 discriminator 1 view .LVU42
 179 0064 5B45     		cmp	r3, fp
 180 0066 29D3     		bcc	.L56
 181 0068 62E1     		b	.L168
 182              	.LVL15:
 183              	.L178:
 184              		.loc 1 227 28 is_stmt 0 discriminator 1 view .LVU43
 185              	.LBE28:
 213:printf.c      ****     if (negative) {
 186              		.loc 1 213 3 is_stmt 1 view .LVU44
 213:printf.c      ****     if (negative) {
 187              		.loc 1 213 6 is_stmt 0 view .LVU45
 188 006a 202B     		cmp	r3, #32
 189 006c 00F0B180 		beq	.L167
 214:printf.c      ****       buf[len++] = '-';
 190              		.loc 1 214 5 is_stmt 1 view .LVU46
 214:printf.c      ****       buf[len++] = '-';
 191              		.loc 1 214 8 is_stmt 0 view .LVU47
 192 0070 0029     		cmp	r1, #0
 193 0072 00F01281 		beq	.L181
 194              	.L79:
 215:printf.c      ****     }
 195              		.loc 1 215 7 is_stmt 1 view .LVU48
 196              	.LVL16:
 215:printf.c      ****     }
 197              		.loc 1 215 18 is_stmt 0 view .LVU49
 198 0076 2D22     		movs	r2, #45
 199 0078 09F80320 		strb	r2, [r9, r3]
 200              	.LVL17:
 226:printf.c      ****     for (size_t i = len; i < width; i++) {
 201              		.loc 1 226 3 is_stmt 1 view .LVU50
 202 007c 6546     		mov	r5, ip
 215:printf.c      ****     }
 203              		.loc 1 215 18 is_stmt 0 view .LVU51
 204 007e 1A46     		mov	r2, r3
 215:printf.c      ****     }
 205              		.loc 1 215 14 view .LVU52
 206 0080 0133     		adds	r3, r3, #1
 207              	.LVL18:
 215:printf.c      ****     }
 208              		.loc 1 215 14 view .LVU53
 209 0082 35E0     		b	.L9
 210              	.LVL19:
 211              	.L163:
 193:printf.c      ****       len--;
 212              		.loc 1 193 5 is_stmt 1 view .LVU54
 193:printf.c      ****       len--;
 213              		.loc 1 193 8 is_stmt 0 view .LVU55
 214 0084 6205     		lsls	r2, r4, #21
 215 0086 05D4     		bmi	.L20
 216              	.L29:
 193:printf.c      ****       len--;
 217              		.loc 1 193 43 discriminator 2 view .LVU56
 218 0088 9D42     		cmp	r5, r3
 219 008a 00F0DE80 		beq	.L22
 193:printf.c      ****       len--;
 220              		.loc 1 193 61 discriminator 3 view .LVU57
 221 008e 5B45     		cmp	r3, fp
 222 0090 00F0DB80 		beq	.L22
 223              	.LVL20:
 224              	.L20:
 199:printf.c      ****       buf[len++] = 'x';
 225              		.loc 1 199 5 is_stmt 1 view .LVU58
 199:printf.c      ****       buf[len++] = 'x';
 226              		.loc 1 199 8 is_stmt 0 view .LVU59
 227 0094 119A     		ldr	r2, [sp, #68]
 228 0096 102A     		cmp	r2, #16
 226:printf.c      ****     for (size_t i = len; i < width; i++) {
 229              		.loc 1 226 29 view .LVU60
 230 0098 04F00305 		and	r5, r4, #3
 199:printf.c      ****       buf[len++] = 'x';
 231              		.loc 1 199 8 view .LVU61
 232 009c 00F0F480 		beq	.L182
 205:printf.c      ****       buf[len++] = 'b';
 233              		.loc 1 205 10 is_stmt 1 view .LVU62
 205:printf.c      ****       buf[len++] = 'b';
 234              		.loc 1 205 13 is_stmt 0 view .LVU63
 235 00a0 022A     		cmp	r2, #2
 236 00a2 00F0BE80 		beq	.L183
 237              	.LVL21:
 238              	.L58:
 208:printf.c      ****       buf[len++] = '0';
 239              		.loc 1 208 5 is_stmt 1 view .LVU64
 208:printf.c      ****       buf[len++] = '0';
 240              		.loc 1 208 8 is_stmt 0 view .LVU65
 241 00a6 202B     		cmp	r3, #32
 242 00a8 40F02E81 		bne	.L184
 243              	.L63:
 244              	.LVL22:
 226:printf.c      ****     for (size_t i = len; i < width; i++) {
 245              		.loc 1 226 3 is_stmt 1 view .LVU66
 226:printf.c      ****     for (size_t i = len; i < width; i++) {
 246              		.loc 1 226 6 is_stmt 0 view .LVU67
 247 00ac 002D     		cmp	r5, #0
 248 00ae 40F0B580 		bne	.L100
 249              	.LVL23:
 250              	.LBB29:
 251              		.loc 1 227 28 is_stmt 1 discriminator 1 view .LVU68
 252 00b2 BBF1200F 		cmp	fp, #32
 253 00b6 40F2B180 		bls	.L100
 254              	.LVL24:
 255              	.L97:
 256              		.loc 1 227 28 is_stmt 0 discriminator 1 view .LVU69
 257 00ba 2023     		movs	r3, #32
 258              	.LVL25:
 259              	.L56:
 260              		.loc 1 227 28 discriminator 1 view .LVU70
 261 00bc 019A     		ldr	r2, [sp, #4]
 262 00be 9A46     		mov	r10, r3
 263 00c0 1446     		mov	r4, r2
 264 00c2 9D1A     		subs	r5, r3, r2
 265              	.LVL26:
 266              	.L75:
 228:printf.c      ****       out(' ', buffer, idx++, maxlen);
 267              		.loc 1 228 7 is_stmt 1 view .LVU71
 268 00c4 2246     		mov	r2, r4
 269 00c6 4346     		mov	r3, r8
 270 00c8 0134     		adds	r4, r4, #1
 271              	.LVL27:
 272              		.loc 1 228 7 is_stmt 0 view .LVU72
 273 00ca 3946     		mov	r1, r7
 274 00cc 2020     		movs	r0, #32
 275 00ce B047     		blx	r6
 276              	.LVL28:
 227:printf.c      ****       out(' ', buffer, idx++, maxlen);
 277              		.loc 1 227 38 is_stmt 1 discriminator 3 view .LVU73
 227:printf.c      ****       out(' ', buffer, idx++, maxlen);
 278              		.loc 1 227 28 discriminator 1 view .LVU74
 279 00d0 2B19     		adds	r3, r5, r4
 280 00d2 5B45     		cmp	r3, fp
 281 00d4 F6D3     		bcc	.L75
 282 00d6 5346     		mov	r3, r10
 283 00d8 0BF1FF35 		add	r5, fp, #-1
 284 00dc 5A1C     		adds	r2, r3, #1
 285 00de ED1A     		subs	r5, r5, r3
 286 00e0 5A45     		cmp	r2, fp
 287 00e2 88BF     		it	hi
 288 00e4 0025     		movhi	r5, #0
 289 00e6 019A     		ldr	r2, [sp, #4]
 290 00e8 0132     		adds	r2, r2, #1
 291 00ea 1544     		add	r5, r5, r2
 292              	.LVL29:
 293              	.L72:
 227:printf.c      ****       out(' ', buffer, idx++, maxlen);
 294              		.loc 1 227 28 is_stmt 0 discriminator 1 view .LVU75
 295              	.LBE29:
 296              	.LBB30:
 229:printf.c      ****     }
 230:printf.c      ****   }
 231:printf.c      **** 
 232:printf.c      ****   // reverse string
 233:printf.c      ****   for (size_t i = 0U; i < len; i++) {
 297              		.loc 1 233 25 is_stmt 1 discriminator 1 view .LVU76
 298 00ec A3B1     		cbz	r3, .L74
 299              	.LVL30:
 300              	.L68:
 301              		.loc 1 233 25 is_stmt 0 discriminator 1 view .LVU77
 302 00ee 5A1E     		subs	r2, r3, #1
 303              	.LVL31:
 304              	.L9:
 305              		.loc 1 233 25 discriminator 1 view .LVU78
 306 00f0 09EB0204 		add	r4, r9, r2
 307 00f4 2A44     		add	r2, r2, r5
 308 00f6 0395     		str	r5, [sp, #12]
 309 00f8 9144     		add	r9, r9, r2
 310 00fa A4EB030A 		sub	r10, r4, r3
 311 00fe 1D46     		mov	r5, r3
 312              	.L76:
 313 0100 A9EB0402 		sub	r2, r9, r4
 314              	.LVL32:
 234:printf.c      ****     out(buf[len - i - 1U], buffer, idx++, maxlen);
 315              		.loc 1 234 5 is_stmt 1 view .LVU79
 316              		.loc 1 234 5 is_stmt 0 view .LVU80
 317 0104 14F80109 		ldrb	r0, [r4], #-1	@ zero_extendqisi2
 318 0108 4346     		mov	r3, r8
 319 010a 3946     		mov	r1, r7
 320 010c B047     		blx	r6
 321              	.LVL33:
 233:printf.c      ****     out(buf[len - i - 1U], buffer, idx++, maxlen);
 322              		.loc 1 233 33 is_stmt 1 discriminator 3 view .LVU81
 233:printf.c      ****     out(buf[len - i - 1U], buffer, idx++, maxlen);
 323              		.loc 1 233 25 discriminator 1 view .LVU82
 324 010e A245     		cmp	r10, r4
 325 0110 F6D1     		bne	.L76
 326 0112 2B46     		mov	r3, r5
 327 0114 039D     		ldr	r5, [sp, #12]
 328 0116 1D44     		add	r5, r5, r3
 329              	.LVL34:
 330              	.L74:
 233:printf.c      ****     out(buf[len - i - 1U], buffer, idx++, maxlen);
 331              		.loc 1 233 25 is_stmt 0 discriminator 1 view .LVU83
 332              	.LBE30:
 235:printf.c      ****   }
 236:printf.c      **** 
 237:printf.c      ****   // append pad spaces up to given width
 238:printf.c      ****   if (flags & FLAGS_LEFT) {
 333              		.loc 1 238 3 is_stmt 1 view .LVU84
 334              		.loc 1 238 6 is_stmt 0 view .LVU85
 335 0118 029B     		ldr	r3, [sp, #8]
 336 011a 6BB1     		cbz	r3, .L5
 337              	.L69:
 338              	.LVL35:
 239:printf.c      ****     while (idx - start_idx < width) {
 339              		.loc 1 239 28 is_stmt 1 view .LVU86
 340              		.loc 1 239 16 is_stmt 0 view .LVU87
 341 011c 019B     		ldr	r3, [sp, #4]
 342 011e EC1A     		subs	r4, r5, r3
 343              		.loc 1 239 28 view .LVU88
 344 0120 5C45     		cmp	r4, fp
 345 0122 09D2     		bcs	.L5
 346              	.L78:
 240:printf.c      ****       out(' ', buffer, idx++, maxlen);
 347              		.loc 1 240 7 is_stmt 1 view .LVU89
 348 0124 2A46     		mov	r2, r5
 349 0126 4346     		mov	r3, r8
 350 0128 3946     		mov	r1, r7
 351 012a 2020     		movs	r0, #32
 239:printf.c      ****     while (idx - start_idx < width) {
 352              		.loc 1 239 28 is_stmt 0 view .LVU90
 353 012c 0134     		adds	r4, r4, #1
 354              		.loc 1 240 7 view .LVU91
 355 012e B047     		blx	r6
 356              	.LVL36:
 239:printf.c      ****     while (idx - start_idx < width) {
 357              		.loc 1 239 28 view .LVU92
 358 0130 5C45     		cmp	r4, fp
 359              		.loc 1 240 7 view .LVU93
 360 0132 05F10105 		add	r5, r5, #1
 361              	.LVL37:
 239:printf.c      ****     while (idx - start_idx < width) {
 362              		.loc 1 239 28 is_stmt 1 view .LVU94
 363 0136 F5D3     		bcc	.L78
 364              	.LVL38:
 365              	.L5:
 241:printf.c      ****     }
 242:printf.c      ****   }
 243:printf.c      **** 
 244:printf.c      ****   return idx;
 245:printf.c      **** }
 366              		.loc 1 245 1 is_stmt 0 view .LVU95
 367 0138 2846     		mov	r0, r5
 368 013a 05B0     		add	sp, sp, #20
 369              		.cfi_remember_state
 370              		.cfi_def_cfa_offset 36
 371              		@ sp needed
 372 013c BDE8F08F 		pop	{r4, r5, r6, r7, r8, r9, r10, fp, pc}
 373              	.LVL39:
 374              	.L6:
 375              		.cfi_restore_state
 180:printf.c      ****       width--;
 376              		.loc 1 180 5 is_stmt 1 view .LVU96
 180:printf.c      ****       width--;
 377              		.loc 1 180 8 is_stmt 0 view .LVU97
 378 0140 BBF1000F 		cmp	fp, #0
 379 0144 14D0     		beq	.L10
 180:printf.c      ****       width--;
 380              		.loc 1 180 15 discriminator 1 view .LVU98
 381 0146 14F0010E 		ands	lr, r4, #1
 382 014a 45D0     		beq	.L11
 180:printf.c      ****       width--;
 383              		.loc 1 180 42 discriminator 2 view .LVU99
 384 014c 0029     		cmp	r1, #0
 385 014e 00F0AD80 		beq	.L12
 181:printf.c      ****     }
 386              		.loc 1 181 7 is_stmt 1 view .LVU100
 183:printf.c      ****       buf[len++] = '0';
 387              		.loc 1 183 25 is_stmt 0 view .LVU101
 388 0152 AB42     		cmp	r3, r5
 181:printf.c      ****     }
 389              		.loc 1 181 12 view .LVU102
 390 0154 0BF1FF3B 		add	fp, fp, #-1
 391              	.LVL40:
 183:printf.c      ****       buf[len++] = '0';
 392              		.loc 1 183 25 is_stmt 1 view .LVU103
 393 0158 0FD3     		bcc	.L13
 394              	.LVL41:
 186:printf.c      ****       buf[len++] = '0';
 395              		.loc 1 186 36 is_stmt 0 discriminator 1 view .LVU104
 396 015a 9B45     		cmp	fp, r3
 397 015c 1FD8     		bhi	.L30
 398              	.LVL42:
 192:printf.c      ****     if (!(flags & FLAGS_PRECISION) && len && ((len == prec) || (len == width))) {
 399              		.loc 1 192 3 is_stmt 1 view .LVU105
 192:printf.c      ****     if (!(flags & FLAGS_PRECISION) && len && ((len == prec) || (len == width))) {
 400              		.loc 1 192 6 is_stmt 0 view .LVU106
 401 015e 0028     		cmp	r0, #0
 402 0160 7FF466AF 		bne	.L7
 213:printf.c      ****     if (negative) {
 403              		.loc 1 213 3 is_stmt 1 view .LVU107
 213:printf.c      ****     if (negative) {
 404              		.loc 1 213 6 is_stmt 0 view .LVU108
 405 0164 202B     		cmp	r3, #32
 406 0166 86D1     		bne	.L79
 407              	.LVL43:
 408              	.L96:
 226:printf.c      ****     for (size_t i = len; i < width; i++) {
 409              		.loc 1 226 6 view .LVU109
 410 0168 019D     		ldr	r5, [sp, #4]
 411 016a 1F22     		movs	r2, #31
 412 016c 2023     		movs	r3, #32
 413 016e BFE7     		b	.L9
 414              	.LVL44:
 415              	.L10:
 183:printf.c      ****       buf[len++] = '0';
 416              		.loc 1 183 25 is_stmt 1 view .LVU110
 417 0170 AB42     		cmp	r3, r5
 180:printf.c      ****       width--;
 418              		.loc 1 180 25 is_stmt 0 discriminator 1 view .LVU111
 419 0172 38BF     		it	cc
 420 0174 04F0010E 		andcc	lr, r4, #1
 183:printf.c      ****       buf[len++] = '0';
 421              		.loc 1 183 25 view .LVU112
 422 0178 5CD2     		bcs	.L185
 423              	.LVL45:
 424              	.L13:
 183:printf.c      ****       buf[len++] = '0';
 425              		.loc 1 183 25 view .LVU113
 426 017a 5A1E     		subs	r2, r3, #1
 427 017c 4A44     		add	r2, r2, r9
 184:printf.c      ****     }
 428              		.loc 1 184 18 view .LVU114
 429 017e 4FF0300C 		mov	ip, #48
 430              	.LVL46:
 184:printf.c      ****     }
 431              		.loc 1 184 18 view .LVU115
 432 0182 04E0     		b	.L16
 433              	.L26:
 184:printf.c      ****     }
 434              		.loc 1 184 14 view .LVU116
 435 0184 0133     		adds	r3, r3, #1
 436              	.LVL47:
 183:printf.c      ****       buf[len++] = '0';
 437              		.loc 1 183 25 view .LVU117
 438 0186 9D42     		cmp	r5, r3
 184:printf.c      ****     }
 439              		.loc 1 184 18 view .LVU118
 440 0188 02F801CF 		strb	ip, [r2, #1]!
 183:printf.c      ****       buf[len++] = '0';
 441              		.loc 1 183 25 is_stmt 1 view .LVU119
 442 018c 01D9     		bls	.L17
 443              	.L16:
 184:printf.c      ****     }
 444              		.loc 1 184 7 view .LVU120
 183:printf.c      ****       buf[len++] = '0';
 445              		.loc 1 183 25 is_stmt 0 discriminator 1 view .LVU121
 446 018e 202B     		cmp	r3, #32
 447 0190 F8D1     		bne	.L26
 448              	.L17:
 186:printf.c      ****       buf[len++] = '0';
 449              		.loc 1 186 53 is_stmt 1 view .LVU122
 450 0192 BEF1000F 		cmp	lr, #0
 451 0196 67D0     		beq	.L186
 452              	.LVL48:
 186:printf.c      ****       buf[len++] = '0';
 453              		.loc 1 186 36 is_stmt 0 discriminator 1 view .LVU123
 454 0198 5B45     		cmp	r3, fp
 455 019a 80F0EC80 		bcs	.L187
 456              	.L30:
 457 019e 5A1E     		subs	r2, r3, #1
 458 01a0 4A44     		add	r2, r2, r9
 187:printf.c      ****     }
 459              		.loc 1 187 18 view .LVU124
 460 01a2 4FF0300C 		mov	ip, #48
 461 01a6 04E0     		b	.L35
 462              	.LVL49:
 463              	.L37:
 187:printf.c      ****     }
 464              		.loc 1 187 14 view .LVU125
 465 01a8 0133     		adds	r3, r3, #1
 466              	.LVL50:
 186:printf.c      ****       buf[len++] = '0';
 467              		.loc 1 186 36 discriminator 1 view .LVU126
 468 01aa 5B45     		cmp	r3, fp
 187:printf.c      ****     }
 469              		.loc 1 187 18 view .LVU127
 470 01ac 02F801CF 		strb	ip, [r2, #1]!
 186:printf.c      ****       buf[len++] = '0';
 471              		.loc 1 186 53 is_stmt 1 view .LVU128
 186:printf.c      ****       buf[len++] = '0';
 472              		.loc 1 186 36 is_stmt 0 discriminator 1 view .LVU129
 473 01b0 63D0     		beq	.L36
 474              	.LVL51:
 475              	.L35:
 187:printf.c      ****     }
 476              		.loc 1 187 7 is_stmt 1 view .LVU130
 186:printf.c      ****       buf[len++] = '0';
 477              		.loc 1 186 53 is_stmt 0 discriminator 2 view .LVU131
 478 01b2 202B     		cmp	r3, #32
 479 01b4 F8D1     		bne	.L37
 480              	.LVL52:
 192:printf.c      ****     if (!(flags & FLAGS_PRECISION) && len && ((len == prec) || (len == width))) {
 481              		.loc 1 192 3 is_stmt 1 view .LVU132
 192:printf.c      ****     if (!(flags & FLAGS_PRECISION) && len && ((len == prec) || (len == width))) {
 482              		.loc 1 192 6 is_stmt 0 view .LVU133
 483 01b6 0028     		cmp	r0, #0
 484 01b8 7FF464AF 		bne	.L163
 485 01bc 04F00305 		and	r5, r4, #3
 486              	.LVL53:
 487              	.L83:
 226:printf.c      ****     for (size_t i = len; i < width; i++) {
 488              		.loc 1 226 3 is_stmt 1 view .LVU134
 226:printf.c      ****     for (size_t i = len; i < width; i++) {
 489              		.loc 1 226 6 is_stmt 0 view .LVU135
 490 01c0 002D     		cmp	r5, #0
 491 01c2 D1D1     		bne	.L96
 492              	.LVL54:
 493              	.L39:
 494              	.LBB31:
 227:printf.c      ****       out(' ', buffer, idx++, maxlen);
 495              		.loc 1 227 28 is_stmt 1 discriminator 1 view .LVU136
 496 01c4 BBF1200F 		cmp	fp, #32
 497 01c8 3FF677AF 		bhi	.L97
 498 01cc CCE7     		b	.L96
 499              	.LVL55:
 500              	.L19:
 227:printf.c      ****       out(' ', buffer, idx++, maxlen);
 501              		.loc 1 227 28 is_stmt 0 discriminator 1 view .LVU137
 502              	.LBE31:
 213:printf.c      ****     if (negative) {
 503              		.loc 1 213 3 is_stmt 1 view .LVU138
 213:printf.c      ****     if (negative) {
 504              		.loc 1 213 6 is_stmt 0 view .LVU139
 505 01ce 202B     		cmp	r3, #32
 506 01d0 09D1     		bne	.L90
 507              	.LVL56:
 508              	.L167:
 213:printf.c      ****     if (negative) {
 509              		.loc 1 213 6 view .LVU140
 510 01d2 6546     		mov	r5, ip
 511 01d4 1F22     		movs	r2, #31
 512 01d6 8BE7     		b	.L9
 513              	.LVL57:
 514              	.L11:
 183:printf.c      ****       buf[len++] = '0';
 515              		.loc 1 183 25 is_stmt 1 view .LVU141
 516 01d8 AB42     		cmp	r3, r5
 517 01da CED3     		bcc	.L13
 192:printf.c      ****     if (!(flags & FLAGS_PRECISION) && len && ((len == prec) || (len == width))) {
 518              		.loc 1 192 3 view .LVU142
 192:printf.c      ****     if (!(flags & FLAGS_PRECISION) && len && ((len == prec) || (len == width))) {
 519              		.loc 1 192 6 is_stmt 0 view .LVU143
 520 01dc 0028     		cmp	r0, #0
 521 01de 7FF427AF 		bne	.L7
 213:printf.c      ****     if (negative) {
 522              		.loc 1 213 3 is_stmt 1 view .LVU144
 213:printf.c      ****     if (negative) {
 523              		.loc 1 213 6 is_stmt 0 view .LVU145
 524 01e2 202B     		cmp	r3, #32
 525 01e4 EED0     		beq	.L39
 526              	.LVL58:
 527              	.L90:
 213:printf.c      ****     if (negative) {
 528              		.loc 1 213 6 view .LVU146
 529 01e6 1A46     		mov	r2, r3
 530 01e8 04F00305 		and	r5, r4, #3
 214:printf.c      ****       buf[len++] = '-';
 531              		.loc 1 214 5 is_stmt 1 view .LVU147
 214:printf.c      ****       buf[len++] = '-';
 532              		.loc 1 214 8 is_stmt 0 view .LVU148
 533 01ec 0029     		cmp	r1, #0
 534 01ee 7FF432AF 		bne	.L188
 535              	.LVL59:
 536              	.L34:
 217:printf.c      ****       buf[len++] = '+';  // ignore the space if the '+' exists
 537              		.loc 1 217 10 is_stmt 1 view .LVU149
 217:printf.c      ****       buf[len++] = '+';  // ignore the space if the '+' exists
 538              		.loc 1 217 13 is_stmt 0 view .LVU150
 539 01f2 6307     		lsls	r3, r4, #29
 540 01f4 6FD5     		bpl	.L65
 218:printf.c      ****     }
 541              		.loc 1 218 7 is_stmt 1 view .LVU151
 218:printf.c      ****     }
 542              		.loc 1 218 18 is_stmt 0 view .LVU152
 543 01f6 2B23     		movs	r3, #43
 544 01f8 09F80230 		strb	r3, [r9, r2]
 218:printf.c      ****     }
 545              		.loc 1 218 14 view .LVU153
 546 01fc 531C     		adds	r3, r2, #1
 547              	.LVL60:
 226:printf.c      ****     for (size_t i = len; i < width; i++) {
 548              		.loc 1 226 3 is_stmt 1 view .LVU154
 226:printf.c      ****     for (size_t i = len; i < width; i++) {
 549              		.loc 1 226 6 is_stmt 0 view .LVU155
 550 01fe 002D     		cmp	r5, #0
 551 0200 40F09680 		bne	.L168
 552              	.L66:
 553              	.LVL61:
 554              	.LBB32:
 227:printf.c      ****       out(' ', buffer, idx++, maxlen);
 555              		.loc 1 227 28 is_stmt 1 discriminator 1 view .LVU156
 556 0204 9B45     		cmp	fp, r3
 557 0206 3FF659AF 		bhi	.L56
 227:printf.c      ****       out(' ', buffer, idx++, maxlen);
 558              		.loc 1 227 28 is_stmt 0 discriminator 1 view .LVU157
 559 020a 91E0     		b	.L168
 560              	.LVL62:
 561              	.L52:
 227:printf.c      ****       out(' ', buffer, idx++, maxlen);
 562              		.loc 1 227 28 discriminator 1 view .LVU158
 563              	.LBE32:
 199:printf.c      ****       buf[len++] = 'x';
 564              		.loc 1 199 53 discriminator 2 view .LVU159
 565 020c 202B     		cmp	r3, #32
 566 020e 40F09380 		bne	.L55
 567              	.LVL63:
 568              	.L159:
 226:printf.c      ****     for (size_t i = len; i < width; i++) {
 569              		.loc 1 226 3 is_stmt 1 view .LVU160
 226:printf.c      ****     for (size_t i = len; i < width; i++) {
 570              		.loc 1 226 6 is_stmt 0 view .LVU161
 571 0212 1DB9     		cbnz	r5, .L100
 572              	.LVL64:
 573              	.LBB33:
 227:printf.c      ****       out(' ', buffer, idx++, maxlen);
 574              		.loc 1 227 28 is_stmt 1 discriminator 1 view .LVU162
 575 0214 BBF1200F 		cmp	fp, #32
 576 0218 3FF650AF 		bhi	.L56
 577              	.LVL65:
 578              	.L100:
 227:printf.c      ****       out(' ', buffer, idx++, maxlen);
 579              		.loc 1 227 28 is_stmt 0 discriminator 1 view .LVU163
 580              	.LBE33:
 226:printf.c      ****     for (size_t i = len; i < width; i++) {
 581              		.loc 1 226 6 view .LVU164
 582 021c 019D     		ldr	r5, [sp, #4]
 583 021e 1F22     		movs	r2, #31
 584 0220 66E7     		b	.L9
 585              	.LVL66:
 586              	.L183:
 205:printf.c      ****       buf[len++] = 'b';
 587              		.loc 1 205 27 discriminator 1 view .LVU165
 588 0222 202B     		cmp	r3, #32
 589 0224 3FF442AF 		beq	.L63
 203:printf.c      ****     }
 590              		.loc 1 203 14 view .LVU166
 591 0228 9C46     		mov	ip, r3
 592 022a 0133     		adds	r3, r3, #1
 593              	.LVL67:
 594              	.L59:
 206:printf.c      ****     }
 595              		.loc 1 206 7 is_stmt 1 view .LVU167
 206:printf.c      ****     }
 596              		.loc 1 206 18 is_stmt 0 view .LVU168
 597 022c 6222     		movs	r2, #98
 598 022e 09F80C20 		strb	r2, [r9, ip]
 599 0232 38E7     		b	.L58
 600              	.LVL68:
 601              	.L185:
 192:printf.c      ****     if (!(flags & FLAGS_PRECISION) && len && ((len == prec) || (len == width))) {
 602              		.loc 1 192 3 is_stmt 1 view .LVU169
 192:printf.c      ****     if (!(flags & FLAGS_PRECISION) && len && ((len == prec) || (len == width))) {
 603              		.loc 1 192 6 is_stmt 0 view .LVU170
 604 0234 0028     		cmp	r0, #0
 605 0236 CAD0     		beq	.L19
 193:printf.c      ****       len--;
 606              		.loc 1 193 5 is_stmt 1 view .LVU171
 193:printf.c      ****       len--;
 607              		.loc 1 193 8 is_stmt 0 view .LVU172
 608 0238 6005     		lsls	r0, r4, #21
 609 023a 3FF52BAF 		bmi	.L20
 193:printf.c      ****       len--;
 610              		.loc 1 193 36 discriminator 1 view .LVU173
 611 023e 002B     		cmp	r3, #0
 612 0240 3FF4F9AE 		beq	.L21
 193:printf.c      ****       len--;
 613              		.loc 1 193 43 discriminator 2 view .LVU174
 614 0244 AB42     		cmp	r3, r5
 615 0246 7FF425AF 		bne	.L20
 616              	.LVL69:
 617              	.L22:
 194:printf.c      ****       if (len && (base == 16U)) {
 618              		.loc 1 194 7 is_stmt 1 view .LVU175
 195:printf.c      ****         len--;
 619              		.loc 1 195 7 view .LVU176
 195:printf.c      ****         len--;
 620              		.loc 1 195 10 is_stmt 0 view .LVU177
 621 024a B3F1010C 		subs	ip, r3, #1
 622              	.LVL70:
 195:printf.c      ****         len--;
 623              		.loc 1 195 10 view .LVU178
 624 024e 3FF4F2AE 		beq	.L21
 195:printf.c      ****         len--;
 625              		.loc 1 195 15 discriminator 1 view .LVU179
 626 0252 119A     		ldr	r2, [sp, #68]
 627 0254 102A     		cmp	r2, #16
 628 0256 7FD0     		beq	.L189
 629              	.LVL71:
 202:printf.c      ****       buf[len++] = 'X';
 630              		.loc 1 202 10 is_stmt 1 view .LVU180
 205:printf.c      ****       buf[len++] = 'b';
 631              		.loc 1 205 10 view .LVU181
 205:printf.c      ****       buf[len++] = 'b';
 632              		.loc 1 205 13 is_stmt 0 view .LVU182
 633 0258 022A     		cmp	r2, #2
 634 025a 00F08580 		beq	.L190
 635              	.L61:
 203:printf.c      ****     }
 636              		.loc 1 203 14 view .LVU183
 637 025e 1A46     		mov	r2, r3
 638 0260 04F00305 		and	r5, r4, #3
 194:printf.c      ****       if (len && (base == 16U)) {
 639              		.loc 1 194 10 view .LVU184
 640 0264 6346     		mov	r3, ip
 641 0266 50E0     		b	.L60
 642              	.LVL72:
 643              	.L186:
 192:printf.c      ****     if (!(flags & FLAGS_PRECISION) && len && ((len == prec) || (len == width))) {
 644              		.loc 1 192 3 is_stmt 1 view .LVU185
 192:printf.c      ****     if (!(flags & FLAGS_PRECISION) && len && ((len == prec) || (len == width))) {
 645              		.loc 1 192 6 is_stmt 0 view .LVU186
 646 0268 0028     		cmp	r0, #0
 647 026a 7FF40BAF 		bne	.L163
 648 026e 1A46     		mov	r2, r3
 649 0270 04F00305 		and	r5, r4, #3
 650              	.LVL73:
 651              	.L28:
 213:printf.c      ****     if (negative) {
 652              		.loc 1 213 3 is_stmt 1 view .LVU187
 213:printf.c      ****     if (negative) {
 653              		.loc 1 213 6 is_stmt 0 view .LVU188
 654 0274 202A     		cmp	r2, #32
 655 0276 A3D0     		beq	.L83
 213:printf.c      ****     if (negative) {
 656              		.loc 1 213 6 view .LVU189
 657 0278 EAE6     		b	.L23
 658              	.LVL74:
 659              	.L36:
 192:printf.c      ****     if (!(flags & FLAGS_PRECISION) && len && ((len == prec) || (len == width))) {
 660              		.loc 1 192 3 is_stmt 1 view .LVU190
 192:printf.c      ****     if (!(flags & FLAGS_PRECISION) && len && ((len == prec) || (len == width))) {
 661              		.loc 1 192 6 is_stmt 0 view .LVU191
 662 027a 0028     		cmp	r0, #0
 663 027c 7FF4D8AE 		bne	.L7
 664 0280 5A46     		mov	r2, fp
 665 0282 04F00305 		and	r5, r4, #3
 666 0286 F5E7     		b	.L28
 667              	.LVL75:
 668              	.L182:
 199:printf.c      ****       buf[len++] = 'x';
 669              		.loc 1 199 23 discriminator 1 view .LVU192
 670 0288 A206     		lsls	r2, r4, #26
 671 028a BFD5     		bpl	.L52
 672              	.LVL76:
 202:printf.c      ****       buf[len++] = 'X';
 673              		.loc 1 202 10 is_stmt 1 view .LVU193
 202:printf.c      ****       buf[len++] = 'X';
 674              		.loc 1 202 57 is_stmt 0 discriminator 2 view .LVU194
 675 028c 202B     		cmp	r3, #32
 676 028e C0D0     		beq	.L159
 203:printf.c      ****     }
 677              		.loc 1 203 7 is_stmt 1 view .LVU195
 678              	.LVL77:
 203:printf.c      ****     }
 679              		.loc 1 203 18 is_stmt 0 view .LVU196
 680 0290 5822     		movs	r2, #88
 681 0292 09F80320 		strb	r2, [r9, r3]
 682              	.LVL78:
 203:printf.c      ****     }
 683              		.loc 1 203 14 view .LVU197
 684 0296 0133     		adds	r3, r3, #1
 685              	.LVL79:
 203:printf.c      ****     }
 686              		.loc 1 203 18 view .LVU198
 687 0298 05E7     		b	.L58
 688              	.LVL80:
 689              	.L181:
 217:printf.c      ****       buf[len++] = '+';  // ignore the space if the '+' exists
 690              		.loc 1 217 10 is_stmt 1 view .LVU199
 217:printf.c      ****       buf[len++] = '+';  // ignore the space if the '+' exists
 691              		.loc 1 217 13 is_stmt 0 view .LVU200
 692 029a 6107     		lsls	r1, r4, #29
 693 029c 3AD4     		bmi	.L191
 220:printf.c      ****       buf[len++] = ' ';
 694              		.loc 1 220 10 is_stmt 1 view .LVU201
 220:printf.c      ****       buf[len++] = ' ';
 695              		.loc 1 220 13 is_stmt 0 view .LVU202
 696 029e 2407     		lsls	r4, r4, #28
 697 02a0 6546     		mov	r5, ip
 698 02a2 50D4     		bmi	.L192
 699              	.LVL81:
 226:printf.c      ****     for (size_t i = len; i < width; i++) {
 700              		.loc 1 226 3 is_stmt 1 view .LVU203
 701              	.LBB34:
 233:printf.c      ****     out(buf[len - i - 1U], buffer, idx++, maxlen);
 702              		.loc 1 233 25 discriminator 1 view .LVU204
 703 02a4 002B     		cmp	r3, #0
 704 02a6 7FF422AF 		bne	.L68
 705 02aa 37E7     		b	.L69
 706              	.LVL82:
 707              	.L12:
 233:printf.c      ****     out(buf[len - i - 1U], buffer, idx++, maxlen);
 708              		.loc 1 233 25 is_stmt 0 discriminator 1 view .LVU205
 709              	.LBE34:
 180:printf.c      ****       width--;
 710              		.loc 1 180 55 discriminator 3 view .LVU206
 711 02ac 14F00C0F 		tst	r4, #12
 712 02b0 01D0     		beq	.L15
 181:printf.c      ****     }
 713              		.loc 1 181 7 is_stmt 1 view .LVU207
 181:printf.c      ****     }
 714              		.loc 1 181 12 is_stmt 0 view .LVU208
 715 02b2 0BF1FF3B 		add	fp, fp, #-1
 716              	.LVL83:
 717              	.L15:
 183:printf.c      ****       buf[len++] = '0';
 718              		.loc 1 183 25 is_stmt 1 view .LVU209
 719 02b6 AB42     		cmp	r3, r5
 720 02b8 FFF45FAF 		bcc	.L13
 721              	.LVL84:
 186:printf.c      ****       buf[len++] = '0';
 722              		.loc 1 186 36 is_stmt 0 discriminator 1 view .LVU210
 723 02bc 5B45     		cmp	r3, fp
 724 02be FFF46EAF 		bcc	.L30
 725              	.LVL85:
 192:printf.c      ****     if (!(flags & FLAGS_PRECISION) && len && ((len == prec) || (len == width))) {
 726              		.loc 1 192 3 is_stmt 1 view .LVU211
 192:printf.c      ****     if (!(flags & FLAGS_PRECISION) && len && ((len == prec) || (len == width))) {
 727              		.loc 1 192 6 is_stmt 0 view .LVU212
 728 02c2 0028     		cmp	r0, #0
 729 02c4 7FF4B4AE 		bne	.L7
 213:printf.c      ****     if (negative) {
 730              		.loc 1 213 3 is_stmt 1 view .LVU213
 213:printf.c      ****     if (negative) {
 731              		.loc 1 213 6 is_stmt 0 view .LVU214
 732 02c8 202B     		cmp	r3, #32
 733 02ca 3FF44DAF 		beq	.L96
 734 02ce 1A46     		mov	r2, r3
 735 02d0 04F00305 		and	r5, r4, #3
 736 02d4 8DE7     		b	.L34
 737              	.LVL86:
 738              	.L65:
 220:printf.c      ****       buf[len++] = ' ';
 739              		.loc 1 220 10 is_stmt 1 view .LVU215
 220:printf.c      ****       buf[len++] = ' ';
 740              		.loc 1 220 13 is_stmt 0 view .LVU216
 741 02d6 2007     		lsls	r0, r4, #28
 742 02d8 23D4     		bmi	.L193
 743              	.LVL87:
 226:printf.c      ****     for (size_t i = len; i < width; i++) {
 744              		.loc 1 226 3 is_stmt 1 view .LVU217
 226:printf.c      ****     for (size_t i = len; i < width; i++) {
 745              		.loc 1 226 6 is_stmt 0 view .LVU218
 746 02da D5BB     		cbnz	r5, .L101
 747              	.LVL88:
 748              	.LBB35:
 227:printf.c      ****       out(' ', buffer, idx++, maxlen);
 749              		.loc 1 227 28 is_stmt 1 discriminator 1 view .LVU219
 750 02dc 9345     		cmp	fp, r2
 751 02de 88BF     		it	hi
 752 02e0 1346     		movhi	r3, r2
 753 02e2 3FF6EBAE 		bhi	.L56
 754              	.LVL89:
 227:printf.c      ****       out(' ', buffer, idx++, maxlen);
 755              		.loc 1 227 28 is_stmt 0 discriminator 1 view .LVU220
 756              	.LBE35:
 757              	.LBB36:
 233:printf.c      ****     out(buf[len - i - 1U], buffer, idx++, maxlen);
 758              		.loc 1 233 25 is_stmt 1 discriminator 1 view .LVU221
 759 02e6 002A     		cmp	r2, #0
 760 02e8 4CD0     		beq	.L103
 761 02ea 1346     		mov	r3, r2
 762              	.LVL90:
 233:printf.c      ****     out(buf[len - i - 1U], buffer, idx++, maxlen);
 763              		.loc 1 233 25 is_stmt 0 discriminator 1 view .LVU222
 764 02ec 013A     		subs	r2, r2, #1
 765              	.LVL91:
 233:printf.c      ****     out(buf[len - i - 1U], buffer, idx++, maxlen);
 766              		.loc 1 233 25 discriminator 1 view .LVU223
 767 02ee 1FE0     		b	.L168
 768              	.LVL92:
 769              	.L179:
 233:printf.c      ****     out(buf[len - i - 1U], buffer, idx++, maxlen);
 770              		.loc 1 233 25 discriminator 1 view .LVU224
 771              	.LBE36:
 199:printf.c      ****       buf[len++] = 'x';
 772              		.loc 1 199 23 discriminator 1 view .LVU225
 773 02f0 A006     		lsls	r0, r4, #26
 774 02f2 1FD4     		bmi	.L194
 200:printf.c      ****     }
 775              		.loc 1 200 7 is_stmt 1 view .LVU226
 776              	.LVL93:
 208:printf.c      ****       buf[len++] = '0';
 777              		.loc 1 208 5 view .LVU227
 199:printf.c      ****       buf[len++] = 'x';
 778              		.loc 1 199 23 is_stmt 0 discriminator 1 view .LVU228
 779 02f4 7823     		movs	r3, #120
 780              	.LVL94:
 781              	.L48:
 206:printf.c      ****     }
 782              		.loc 1 206 18 view .LVU229
 783 02f6 89F80030 		strb	r3, [r9]
 209:printf.c      ****     }
 784              		.loc 1 209 7 is_stmt 1 view .LVU230
 785              	.LVL95:
 209:printf.c      ****     }
 786              		.loc 1 209 18 is_stmt 0 view .LVU231
 787 02fa 3023     		movs	r3, #48
 788 02fc 89F80130 		strb	r3, [r9, #1]
 213:printf.c      ****     if (negative) {
 789              		.loc 1 213 3 is_stmt 1 view .LVU232
 209:printf.c      ****     }
 790              		.loc 1 209 14 is_stmt 0 view .LVU233
 791 0300 0222     		movs	r2, #2
 792 0302 04F00305 		and	r5, r4, #3
 793 0306 A3E6     		b	.L23
 794              	.LVL96:
 795              	.L184:
 209:printf.c      ****     }
 796              		.loc 1 209 14 view .LVU234
 797 0308 5A1C     		adds	r2, r3, #1
 798              	.LVL97:
 799              	.L60:
 209:printf.c      ****     }
 800              		.loc 1 209 7 is_stmt 1 view .LVU235
 209:printf.c      ****     }
 801              		.loc 1 209 18 is_stmt 0 view .LVU236
 802 030a 4FF0300C 		mov	ip, #48
 803 030e 09F803C0 		strb	ip, [r9, r3]
 804 0312 AFE7     		b	.L28
 805              	.LVL98:
 806              	.L191:
 218:printf.c      ****     }
 807              		.loc 1 218 7 is_stmt 1 view .LVU237
 218:printf.c      ****     }
 808              		.loc 1 218 18 is_stmt 0 view .LVU238
 809 0314 2B22     		movs	r2, #43
 810 0316 09F80320 		strb	r2, [r9, r3]
 811              	.LVL99:
 226:printf.c      ****     for (size_t i = len; i < width; i++) {
 812              		.loc 1 226 3 is_stmt 1 view .LVU239
 813 031a 6546     		mov	r5, ip
 218:printf.c      ****     }
 814              		.loc 1 218 18 is_stmt 0 view .LVU240
 815 031c 1A46     		mov	r2, r3
 218:printf.c      ****     }
 816              		.loc 1 218 14 view .LVU241
 817 031e 0133     		adds	r3, r3, #1
 818              	.LVL100:
 218:printf.c      ****     }
 819              		.loc 1 218 14 view .LVU242
 820 0320 E6E6     		b	.L9
 821              	.LVL101:
 822              	.L193:
 221:printf.c      ****     }
 823              		.loc 1 221 7 is_stmt 1 view .LVU243
 221:printf.c      ****     }
 824              		.loc 1 221 18 is_stmt 0 view .LVU244
 825 0322 2023     		movs	r3, #32
 826 0324 09F80230 		strb	r3, [r9, r2]
 221:printf.c      ****     }
 827              		.loc 1 221 14 view .LVU245
 828 0328 531C     		adds	r3, r2, #1
 829              	.LVL102:
 226:printf.c      ****     for (size_t i = len; i < width; i++) {
 830              		.loc 1 226 3 is_stmt 1 view .LVU246
 226:printf.c      ****     for (size_t i = len; i < width; i++) {
 831              		.loc 1 226 6 is_stmt 0 view .LVU247
 832 032a 002D     		cmp	r5, #0
 833 032c 3FF46AAF 		beq	.L66
 834              	.LVL103:
 835              	.L168:
 836              	.LBB37:
 233:printf.c      ****     out(buf[len - i - 1U], buffer, idx++, maxlen);
 837              		.loc 1 233 25 discriminator 1 view .LVU248
 838 0330 019D     		ldr	r5, [sp, #4]
 839 0332 DDE6     		b	.L9
 840              	.LVL104:
 841              	.L194:
 233:printf.c      ****     out(buf[len - i - 1U], buffer, idx++, maxlen);
 842              		.loc 1 233 25 discriminator 1 view .LVU249
 843              	.LBE37:
 203:printf.c      ****     }
 844              		.loc 1 203 7 is_stmt 1 view .LVU250
 203:printf.c      ****     }
 845              		.loc 1 203 18 is_stmt 0 view .LVU251
 846 0334 5823     		movs	r3, #88
 847 0336 DEE7     		b	.L48
 848              	.LVL105:
 849              	.L55:
 200:printf.c      ****     }
 850              		.loc 1 200 7 is_stmt 1 view .LVU252
 200:printf.c      ****     }
 851              		.loc 1 200 18 is_stmt 0 view .LVU253
 852 0338 7822     		movs	r2, #120
 853 033a 09F80320 		strb	r2, [r9, r3]
 854              	.LVL106:
 200:printf.c      ****     }
 855              		.loc 1 200 14 view .LVU254
 856 033e 0133     		adds	r3, r3, #1
 857              	.LVL107:
 200:printf.c      ****     }
 858              		.loc 1 200 18 view .LVU255
 859 0340 B1E6     		b	.L58
 860              	.LVL108:
 861              	.L180:
 206:printf.c      ****     }
 862              		.loc 1 206 7 is_stmt 1 view .LVU256
 208:printf.c      ****       buf[len++] = '0';
 863              		.loc 1 208 5 view .LVU257
 193:printf.c      ****       len--;
 864              		.loc 1 193 43 is_stmt 0 discriminator 2 view .LVU258
 865 0342 6223     		movs	r3, #98
 866 0344 D7E7     		b	.L48
 867              	.LVL109:
 868              	.L192:
 221:printf.c      ****     }
 869              		.loc 1 221 7 is_stmt 1 view .LVU259
 221:printf.c      ****     }
 870              		.loc 1 221 18 is_stmt 0 view .LVU260
 871 0346 2022     		movs	r2, #32
 872 0348 09F80320 		strb	r2, [r9, r3]
 873              	.LVL110:
 226:printf.c      ****     for (size_t i = len; i < width; i++) {
 874              		.loc 1 226 3 is_stmt 1 view .LVU261
 221:printf.c      ****     }
 875              		.loc 1 221 18 is_stmt 0 view .LVU262
 876 034c 1A46     		mov	r2, r3
 221:printf.c      ****     }
 877              		.loc 1 221 14 view .LVU263
 878 034e 0133     		adds	r3, r3, #1
 879              	.LVL111:
 221:printf.c      ****     }
 880              		.loc 1 221 14 view .LVU264
 881 0350 CEE6     		b	.L9
 882              	.LVL112:
 883              	.L101:
 884              	.LBB38:
 221:printf.c      ****     }
 885              		.loc 1 221 14 view .LVU265
 886 0352 019D     		ldr	r5, [sp, #4]
 887 0354 1346     		mov	r3, r2
 888 0356 C9E6     		b	.L72
 889              	.LVL113:
 890              	.L189:
 221:printf.c      ****     }
 891              		.loc 1 221 14 view .LVU266
 892              	.LBE38:
 196:printf.c      ****       }
 893              		.loc 1 196 9 is_stmt 1 view .LVU267
 199:printf.c      ****       buf[len++] = 'x';
 894              		.loc 1 199 5 view .LVU268
 199:printf.c      ****       buf[len++] = 'x';
 895              		.loc 1 199 23 is_stmt 0 discriminator 1 view .LVU269
 896 0358 A506     		lsls	r5, r4, #26
 196:printf.c      ****       }
 897              		.loc 1 196 12 view .LVU270
 898 035a A3F10202 		sub	r2, r3, #2
 899              	.LVL114:
 199:printf.c      ****       buf[len++] = 'x';
 900              		.loc 1 199 23 discriminator 1 view .LVU271
 901 035e 06D5     		bpl	.L42
 902              	.LVL115:
 203:printf.c      ****     }
 903              		.loc 1 203 7 is_stmt 1 view .LVU272
 203:printf.c      ****     }
 904              		.loc 1 203 18 is_stmt 0 view .LVU273
 905 0360 5825     		movs	r5, #88
 906 0362 09F80250 		strb	r5, [r9, r2]
 208:printf.c      ****       buf[len++] = '0';
 907              		.loc 1 208 5 is_stmt 1 view .LVU274
 908 0366 7AE7     		b	.L61
 909              	.LVL116:
 910              	.L190:
 208:printf.c      ****       buf[len++] = '0';
 911              		.loc 1 208 5 is_stmt 0 view .LVU275
 912 0368 04F00305 		and	r5, r4, #3
 913 036c 5EE7     		b	.L59
 914              	.LVL117:
 915              	.L42:
 200:printf.c      ****     }
 916              		.loc 1 200 7 is_stmt 1 view .LVU276
 200:printf.c      ****     }
 917              		.loc 1 200 18 is_stmt 0 view .LVU277
 918 036e 7825     		movs	r5, #120
 919 0370 09F80250 		strb	r5, [r9, r2]
 208:printf.c      ****       buf[len++] = '0';
 920              		.loc 1 208 5 is_stmt 1 view .LVU278
 921 0374 73E7     		b	.L61
 922              	.LVL118:
 923              	.L187:
 192:printf.c      ****     if (!(flags & FLAGS_PRECISION) && len && ((len == prec) || (len == width))) {
 924              		.loc 1 192 3 view .LVU279
 192:printf.c      ****     if (!(flags & FLAGS_PRECISION) && len && ((len == prec) || (len == width))) {
 925              		.loc 1 192 6 is_stmt 0 view .LVU280
 926 0376 0028     		cmp	r0, #0
 927 0378 7FF484AE 		bne	.L163
 213:printf.c      ****     if (negative) {
 928              		.loc 1 213 3 is_stmt 1 view .LVU281
 213:printf.c      ****     if (negative) {
 929              		.loc 1 213 6 is_stmt 0 view .LVU282
 930 037c 202B     		cmp	r3, #32
 931 037e 3FF44DAF 		beq	.L100
 932 0382 30E7     		b	.L90
 933              	.LVL119:
 934              	.L103:
 935              	.LBB39:
 233:printf.c      ****     out(buf[len - i - 1U], buffer, idx++, maxlen);
 936              		.loc 1 233 25 discriminator 1 view .LVU283
 937 0384 019D     		ldr	r5, [sp, #4]
 233:printf.c      ****     out(buf[len - i - 1U], buffer, idx++, maxlen);
 938              		.loc 1 233 25 discriminator 1 view .LVU284
 939              	.LBE39:
 244:printf.c      **** }
 940              		.loc 1 244 3 is_stmt 1 view .LVU285
 244:printf.c      **** }
 941              		.loc 1 244 10 is_stmt 0 view .LVU286
 942 0386 D7E6     		b	.L5
 943              		.cfi_endproc
 944              	.LFE7:
 946              		.section	.text._out_char,"ax",%progbits
 947              		.align	1
 948              		.p2align 2,,3
 949              		.syntax unified
 950              		.thumb
 951              		.thumb_func
 953              	_out_char:
 954              	.LVL120:
 955              	.LFB2:
 125:printf.c      ****   (void)buffer; (void)idx; (void)maxlen;
 956              		.loc 1 125 1 is_stmt 1 view -0
 957              		.cfi_startproc
 958              		@ args = 0, pretend = 0, frame = 0
 959              		@ frame_needed = 0, uses_anonymous_args = 0
 960              		@ link register save eliminated.
 126:printf.c      ****   if (character) {
 961              		.loc 1 126 3 view .LVU288
 126:printf.c      ****   if (character) {
 962              		.loc 1 126 17 view .LVU289
 126:printf.c      ****   if (character) {
 963              		.loc 1 126 28 view .LVU290
 127:printf.c      ****     _putchar(character);
 964              		.loc 1 127 3 view .LVU291
 127:printf.c      ****     _putchar(character);
 965              		.loc 1 127 6 is_stmt 0 view .LVU292
 966 0000 00B9     		cbnz	r0, .L197
 130:printf.c      **** 
 967              		.loc 1 130 1 view .LVU293
 968 0002 7047     		bx	lr
 969              	.L197:
 128:printf.c      ****   }
 970              		.loc 1 128 5 is_stmt 1 view .LVU294
 971 0004 FFF7FEBF 		b	_putchar
 972              	.LVL121:
 128:printf.c      ****   }
 973              		.loc 1 128 5 is_stmt 0 view .LVU295
 974              		.cfi_endproc
 975              	.LFE2:
 977              		.section	.text._out_fct,"ax",%progbits
 978              		.align	1
 979              		.p2align 2,,3
 980              		.syntax unified
 981              		.thumb
 982              		.thumb_func
 984              	_out_fct:
 985              	.LVL122:
 986              	.LFB3:
 135:printf.c      ****   (void)idx; (void)maxlen;
 987              		.loc 1 135 1 is_stmt 1 view -0
 988              		.cfi_startproc
 989              		@ args = 0, pretend = 0, frame = 0
 990              		@ frame_needed = 0, uses_anonymous_args = 0
 991              		@ link register save eliminated.
 136:printf.c      ****   if (character) {
 992              		.loc 1 136 3 view .LVU297
 136:printf.c      ****   if (character) {
 993              		.loc 1 136 14 view .LVU298
 137:printf.c      ****     // buffer is the output fct pointer
 994              		.loc 1 137 3 view .LVU299
 137:printf.c      ****     // buffer is the output fct pointer
 995              		.loc 1 137 6 is_stmt 0 view .LVU300
 996 0000 10B1     		cbz	r0, .L198
 997              	.LVL123:
 998              	.LBB42:
 999              	.LBI42:
 134:printf.c      **** {
 1000              		.loc 1 134 20 is_stmt 1 view .LVU301
 1001              	.LBB43:
 139:printf.c      ****   }
 1002              		.loc 1 139 5 view .LVU302
 139:printf.c      ****   }
 1003              		.loc 1 139 6 is_stmt 0 view .LVU303
 1004 0002 D1E90031 		ldrd	r3, r1, [r1]
 1005              	.LVL124:
 139:printf.c      ****   }
 1006              		.loc 1 139 6 view .LVU304
 1007 0006 1847     		bx	r3	@ indirect register sibling call
 1008              	.LVL125:
 1009              	.L198:
 139:printf.c      ****   }
 1010              		.loc 1 139 6 view .LVU305
 1011              	.LBE43:
 1012              	.LBE42:
 141:printf.c      **** 
 1013              		.loc 1 141 1 view .LVU306
 1014 0008 7047     		bx	lr
 1015              		.cfi_endproc
 1016              	.LFE3:
 1018 000a 00BF     		.section	.text._vsnprintf,"ax",%progbits
 1019              		.align	1
 1020              		.p2align 2,,3
 1021              		.syntax unified
 1022              		.thumb
 1023              		.thumb_func
 1025              	_vsnprintf:
 1026              	.LVL126:
 1027              	.LFB11:
 246:printf.c      **** 
 247:printf.c      **** 
 248:printf.c      **** // internal itoa for 'long' type
 249:printf.c      **** static size_t _ntoa_long(out_fct_type out, char* buffer, size_t idx, size_t maxlen, unsigned long v
 250:printf.c      **** {
 251:printf.c      ****   char buf[PRINTF_NTOA_BUFFER_SIZE];
 252:printf.c      ****   size_t len = 0U;
 253:printf.c      **** 
 254:printf.c      ****   // no hash for 0 values
 255:printf.c      ****   if (!value) {
 256:printf.c      ****     flags &= ~FLAGS_HASH;
 257:printf.c      ****   }
 258:printf.c      **** 
 259:printf.c      ****   // write if precision != 0 and value is != 0
 260:printf.c      ****   if (!(flags & FLAGS_PRECISION) || value) {
 261:printf.c      ****     do {
 262:printf.c      ****       const char digit = (char)(value % base);
 263:printf.c      ****       buf[len++] = digit < 10 ? '0' + digit : (flags & FLAGS_UPPERCASE ? 'A' : 'a') + digit - 10;
 264:printf.c      ****       value /= base;
 265:printf.c      ****     } while (value && (len < PRINTF_NTOA_BUFFER_SIZE));
 266:printf.c      ****   }
 267:printf.c      **** 
 268:printf.c      ****   return _ntoa_format(out, buffer, idx, maxlen, buf, len, negative, (unsigned int)base, prec, width
 269:printf.c      **** }
 270:printf.c      **** 
 271:printf.c      **** 
 272:printf.c      **** // internal itoa for 'long long' type
 273:printf.c      **** #if defined(PRINTF_SUPPORT_LONG_LONG)
 274:printf.c      **** static size_t _ntoa_long_long(out_fct_type out, char* buffer, size_t idx, size_t maxlen, unsigned l
 275:printf.c      **** {
 276:printf.c      ****   char buf[PRINTF_NTOA_BUFFER_SIZE];
 277:printf.c      ****   size_t len = 0U;
 278:printf.c      **** 
 279:printf.c      ****   // no hash for 0 values
 280:printf.c      ****   if (!value) {
 281:printf.c      ****     flags &= ~FLAGS_HASH;
 282:printf.c      ****   }
 283:printf.c      **** 
 284:printf.c      ****   // write if precision != 0 and value is != 0
 285:printf.c      ****   if (!(flags & FLAGS_PRECISION) || value) {
 286:printf.c      ****     do {
 287:printf.c      ****       const char digit = (char)(value % base);
 288:printf.c      ****       buf[len++] = digit < 10 ? '0' + digit : (flags & FLAGS_UPPERCASE ? 'A' : 'a') + digit - 10;
 289:printf.c      ****       value /= base;
 290:printf.c      ****     } while (value && (len < PRINTF_NTOA_BUFFER_SIZE));
 291:printf.c      ****   }
 292:printf.c      **** 
 293:printf.c      ****   return _ntoa_format(out, buffer, idx, maxlen, buf, len, negative, (unsigned int)base, prec, width
 294:printf.c      **** }
 295:printf.c      **** #endif  // PRINTF_SUPPORT_LONG_LONG
 296:printf.c      **** 
 297:printf.c      **** 
 298:printf.c      **** #if defined(PRINTF_SUPPORT_FLOAT)
 299:printf.c      **** static size_t _ftoa(out_fct_type out, char* buffer, size_t idx, size_t maxlen, double value, unsign
 300:printf.c      **** {
 301:printf.c      ****   const size_t start_idx = idx;
 302:printf.c      **** 
 303:printf.c      ****   char buf[PRINTF_FTOA_BUFFER_SIZE];
 304:printf.c      ****   size_t len  = 0U;
 305:printf.c      ****   double diff = 0.0;
 306:printf.c      **** 
 307:printf.c      ****   // if input is larger than thres_max, revert to exponential
 308:printf.c      ****   const double thres_max = (double)0x7FFFFFFF;
 309:printf.c      **** 
 310:printf.c      ****   // powers of 10
 311:printf.c      ****   static const double pow10[] = { 1, 10, 100, 1000, 10000, 100000, 1000000, 10000000, 100000000, 10
 312:printf.c      **** 
 313:printf.c      ****   // test for NaN
 314:printf.c      ****   if (value != value) {
 315:printf.c      ****     out('n', buffer, idx++, maxlen);
 316:printf.c      ****     out('a', buffer, idx++, maxlen);
 317:printf.c      ****     out('n', buffer, idx++, maxlen);
 318:printf.c      ****     return idx;
 319:printf.c      ****   }
 320:printf.c      **** 
 321:printf.c      ****   // test for negative
 322:printf.c      ****   bool negative = false;
 323:printf.c      ****   if (value < 0) {
 324:printf.c      ****     negative = true;
 325:printf.c      ****     value = 0 - value;
 326:printf.c      ****   }
 327:printf.c      **** 
 328:printf.c      ****   // set default precision to 6, if not set explicitly
 329:printf.c      ****   if (!(flags & FLAGS_PRECISION)) {
 330:printf.c      ****     prec = 6U;
 331:printf.c      ****   }
 332:printf.c      ****   // limit precision to 9, cause a prec >= 10 can lead to overflow errors
 333:printf.c      ****   while ((len < PRINTF_FTOA_BUFFER_SIZE) && (prec > 9U)) {
 334:printf.c      ****     buf[len++] = '0';
 335:printf.c      ****     prec--;
 336:printf.c      ****   }
 337:printf.c      **** 
 338:printf.c      ****   int whole = (int)value;
 339:printf.c      ****   double tmp = (value - whole) * pow10[prec];
 340:printf.c      ****   unsigned long frac = (unsigned long)tmp;
 341:printf.c      ****   diff = tmp - frac;
 342:printf.c      **** 
 343:printf.c      ****   if (diff > 0.5) {
 344:printf.c      ****     ++frac;
 345:printf.c      ****     // handle rollover, e.g. case 0.99 with prec 1 is 1.0
 346:printf.c      ****     if (frac >= pow10[prec]) {
 347:printf.c      ****       frac = 0;
 348:printf.c      ****       ++whole;
 349:printf.c      ****     }
 350:printf.c      ****   }
 351:printf.c      ****   else if (diff < 0.5) {
 352:printf.c      ****   }
 353:printf.c      ****   else if ((frac == 0U) || (frac & 1U)) {
 354:printf.c      ****     // if halfway, round up if odd OR if last digit is 0
 355:printf.c      ****     ++frac;
 356:printf.c      ****   }
 357:printf.c      **** 
 358:printf.c      ****   // TBD: for very large numbers switch back to native sprintf for exponentials. Anyone want to wri
 359:printf.c      ****   // Normal printf behavior is to print EVERY whole number digit which can be 100s of characters ov
 360:printf.c      ****   if (value > thres_max) {
 361:printf.c      ****     return 0U;
 362:printf.c      ****   }
 363:printf.c      **** 
 364:printf.c      ****   if (prec == 0U) {
 365:printf.c      ****     diff = value - (double)whole;
 366:printf.c      ****     if ((!(diff < 0.5) || (diff > 0.5)) && (whole & 1)) {
 367:printf.c      ****       // exactly 0.5 and ODD, then round up
 368:printf.c      ****       // 1.5 -> 2, but 2.5 -> 2
 369:printf.c      ****       ++whole;
 370:printf.c      ****     }
 371:printf.c      ****   }
 372:printf.c      ****   else {
 373:printf.c      ****     unsigned int count = prec;
 374:printf.c      ****     // now do fractional part, as an unsigned number
 375:printf.c      ****     while (len < PRINTF_FTOA_BUFFER_SIZE) {
 376:printf.c      ****       --count;
 377:printf.c      ****       buf[len++] = (char)(48U + (frac % 10U));
 378:printf.c      ****       if (!(frac /= 10U)) {
 379:printf.c      ****         break;
 380:printf.c      ****       }
 381:printf.c      ****     }
 382:printf.c      ****     // add extra 0s
 383:printf.c      ****     while ((len < PRINTF_FTOA_BUFFER_SIZE) && (count-- > 0U)) {
 384:printf.c      ****       buf[len++] = '0';
 385:printf.c      ****     }
 386:printf.c      ****     if (len < PRINTF_FTOA_BUFFER_SIZE) {
 387:printf.c      ****       // add decimal
 388:printf.c      ****       buf[len++] = '.';
 389:printf.c      ****     }
 390:printf.c      ****   }
 391:printf.c      **** 
 392:printf.c      ****   // do whole part, number is reversed
 393:printf.c      ****   while (len < PRINTF_FTOA_BUFFER_SIZE) {
 394:printf.c      ****     buf[len++] = (char)(48 + (whole % 10));
 395:printf.c      ****     if (!(whole /= 10)) {
 396:printf.c      ****       break;
 397:printf.c      ****     }
 398:printf.c      ****   }
 399:printf.c      **** 
 400:printf.c      ****   // pad leading zeros
 401:printf.c      ****   if (!(flags & FLAGS_LEFT) && (flags & FLAGS_ZEROPAD)) {
 402:printf.c      ****     if (width && (negative || (flags & (FLAGS_PLUS | FLAGS_SPACE)))) {
 403:printf.c      ****       width--;
 404:printf.c      ****     }
 405:printf.c      ****     while ((len < width) && (len < PRINTF_FTOA_BUFFER_SIZE)) {
 406:printf.c      ****       buf[len++] = '0';
 407:printf.c      ****     }
 408:printf.c      ****   }
 409:printf.c      **** 
 410:printf.c      ****   if (len < PRINTF_FTOA_BUFFER_SIZE) {
 411:printf.c      ****     if (negative) {
 412:printf.c      ****       buf[len++] = '-';
 413:printf.c      ****     }
 414:printf.c      ****     else if (flags & FLAGS_PLUS) {
 415:printf.c      ****       buf[len++] = '+';  // ignore the space if the '+' exists
 416:printf.c      ****     }
 417:printf.c      ****     else if (flags & FLAGS_SPACE) {
 418:printf.c      ****       buf[len++] = ' ';
 419:printf.c      ****     }
 420:printf.c      ****   }
 421:printf.c      **** 
 422:printf.c      ****   // pad spaces up to given width
 423:printf.c      ****   if (!(flags & FLAGS_LEFT) && !(flags & FLAGS_ZEROPAD)) {
 424:printf.c      ****     for (size_t i = len; i < width; i++) {
 425:printf.c      ****       out(' ', buffer, idx++, maxlen);
 426:printf.c      ****     }
 427:printf.c      ****   }
 428:printf.c      **** 
 429:printf.c      ****   // reverse string
 430:printf.c      ****   for (size_t i = 0U; i < len; i++) {
 431:printf.c      ****     out(buf[len - i - 1U], buffer, idx++, maxlen);
 432:printf.c      ****   }
 433:printf.c      **** 
 434:printf.c      ****   // append pad spaces up to given width
 435:printf.c      ****   if (flags & FLAGS_LEFT) {
 436:printf.c      ****     while (idx - start_idx < width) {
 437:printf.c      ****       out(' ', buffer, idx++, maxlen);
 438:printf.c      ****     }
 439:printf.c      ****   }
 440:printf.c      **** 
 441:printf.c      ****   return idx;
 442:printf.c      **** }
 443:printf.c      **** #endif  // PRINTF_SUPPORT_FLOAT
 444:printf.c      **** 
 445:printf.c      **** 
 446:printf.c      **** // internal vsnprintf
 447:printf.c      **** static int _vsnprintf(out_fct_type out, char* buffer, const size_t maxlen, const char* format, va_l
 448:printf.c      **** {
 1028              		.loc 1 448 1 is_stmt 1 view -0
 1029              		.cfi_startproc
 1030              		@ args = 4, pretend = 0, frame = 80
 1031              		@ frame_needed = 0, uses_anonymous_args = 0
 1032              		.loc 1 448 1 is_stmt 0 view .LVU308
 1033 0000 2DE9F04F 		push	{r4, r5, r6, r7, r8, r9, r10, fp, lr}
 1034              		.cfi_def_cfa_offset 36
 1035              		.cfi_offset 4, -36
 1036              		.cfi_offset 5, -32
 1037              		.cfi_offset 6, -28
 1038              		.cfi_offset 7, -24
 1039              		.cfi_offset 8, -20
 1040              		.cfi_offset 9, -16
 1041              		.cfi_offset 10, -12
 1042              		.cfi_offset 11, -8
 1043              		.cfi_offset 14, -4
 1044 0004 9DB0     		sub	sp, sp, #116
 1045              		.cfi_def_cfa_offset 152
 1046              		.loc 1 448 1 view .LVU309
 1047 0006 9846     		mov	r8, r3
 449:printf.c      ****   unsigned int flags, width, precision, n;
 450:printf.c      ****   size_t idx = 0U;
 451:printf.c      **** 
 452:printf.c      ****   if (!buffer) {
 453:printf.c      ****     // use null output function
 454:printf.c      ****     out = _out_null;
 1048              		.loc 1 454 9 view .LVU310
 1049 0008 0B1E     		subs	r3, r1, #0
 1050              	.LVL127:
 1051              		.loc 1 454 9 view .LVU311
 1052 000a 0893     		str	r3, [sp, #32]
 1053 000c 269B     		ldr	r3, [sp, #152]
 1054 000e 0A93     		str	r3, [sp, #40]
 1055 0010 18BF     		it	ne
 1056 0012 8346     		movne	fp, r0
 1057 0014 A44B     		ldr	r3, .L567
 455:printf.c      ****   }
 456:printf.c      **** 
 457:printf.c      ****   while (*format)
 1058              		.loc 1 457 10 view .LVU312
 1059 0016 98F80000 		ldrb	r0, [r8]	@ zero_extendqisi2
 1060              	.LVL128:
 448:printf.c      ****   unsigned int flags, width, precision, n;
 1061              		.loc 1 448 1 view .LVU313
 1062 001a 9246     		mov	r10, r2
 1063              	.LVL129:
 449:printf.c      ****   unsigned int flags, width, precision, n;
 1064              		.loc 1 449 3 is_stmt 1 view .LVU314
 450:printf.c      **** 
 1065              		.loc 1 450 3 view .LVU315
 452:printf.c      ****     // use null output function
 1066              		.loc 1 452 3 view .LVU316
 454:printf.c      ****   }
 1067              		.loc 1 454 9 is_stmt 0 view .LVU317
 1068 001c 08BF     		it	eq
 1069 001e 9B46     		moveq	fp, r3
 1070              	.LVL130:
 1071              		.loc 1 457 10 is_stmt 1 view .LVU318
 1072 0020 0028     		cmp	r0, #0
 1073 0022 00F02083 		beq	.L488
 1074 0026 4FF00009 		mov	r9, #0
 1075 002a 0992     		str	r2, [sp, #36]
 1076 002c 0AE0     		b	.L373
 1077              	.LVL131:
 1078              	.L530:
 458:printf.c      ****   {
 459:printf.c      ****     // format specifier?  %[flags][width][.precision][length]
 460:printf.c      ****     if (*format != '%') {
 461:printf.c      ****       // no
 462:printf.c      ****       out(*format, buffer, idx++, maxlen);
 1079              		.loc 1 462 7 view .LVU319
 1080 002e 4A46     		mov	r2, r9
 1081 0030 099B     		ldr	r3, [sp, #36]
 1082 0032 0899     		ldr	r1, [sp, #32]
 1083 0034 09F10109 		add	r9, r9, #1
 1084              	.LVL132:
 1085              		.loc 1 462 7 is_stmt 0 view .LVU320
 1086 0038 D847     		blx	fp
 1087              	.LVL133:
 463:printf.c      ****       format++;
 1088              		.loc 1 463 7 is_stmt 1 view .LVU321
 464:printf.c      ****       continue;
 1089              		.loc 1 464 7 view .LVU322
 1090              	.L204:
 457:printf.c      ****   {
 1091              		.loc 1 457 10 view .LVU323
 1092 003a 98F80000 		ldrb	r0, [r8]	@ zero_extendqisi2
 1093 003e 0028     		cmp	r0, #0
 1094 0040 00F08E80 		beq	.L529
 1095              	.LVL134:
 1096              	.L373:
 460:printf.c      ****       // no
 1097              		.loc 1 460 5 view .LVU324
 460:printf.c      ****       // no
 1098              		.loc 1 460 8 is_stmt 0 view .LVU325
 1099 0044 2528     		cmp	r0, #37
 463:printf.c      ****       continue;
 1100              		.loc 1 463 13 view .LVU326
 1101 0046 08F10108 		add	r8, r8, #1
 1102              	.LVL135:
 460:printf.c      ****       // no
 1103              		.loc 1 460 8 view .LVU327
 1104 004a F0D1     		bne	.L530
 465:printf.c      ****     }
 466:printf.c      ****     else {
 467:printf.c      ****       // yes, evaluate it
 468:printf.c      ****       format++;
 469:printf.c      ****     }
 470:printf.c      **** 
 471:printf.c      ****     // evaluate flags
 472:printf.c      ****     flags = 0U;
 1105              		.loc 1 472 11 view .LVU328
 1106 004c 0024     		movs	r4, #0
 1107              	.LVL136:
 1108              	.L203:
 473:printf.c      ****     do {
 1109              		.loc 1 473 5 is_stmt 1 view .LVU329
 474:printf.c      ****       switch (*format) {
 1110              		.loc 1 474 7 view .LVU330
 1111              		.loc 1 474 15 is_stmt 0 view .LVU331
 1112 004e 4346     		mov	r3, r8
 1113 0050 13F8010B 		ldrb	r0, [r3], #1	@ zero_extendqisi2
 1114              		.loc 1 474 7 view .LVU332
 1115 0054 A0F12002 		sub	r2, r0, #32
 1116 0058 102A     		cmp	r2, #16
 1117 005a 0AD8     		bhi	.L205
 1118 005c DFE802F0 		tbb	[pc, r2]
 1119              	.L207:
 1120 0060 40       		.byte	(.L211-.L207)/2
 1121 0061 09       		.byte	(.L205-.L207)/2
 1122 0062 09       		.byte	(.L205-.L207)/2
 1123 0063 3C       		.byte	(.L210-.L207)/2
 1124 0064 09       		.byte	(.L205-.L207)/2
 1125 0065 09       		.byte	(.L205-.L207)/2
 1126 0066 09       		.byte	(.L205-.L207)/2
 1127 0067 09       		.byte	(.L205-.L207)/2
 1128 0068 09       		.byte	(.L205-.L207)/2
 1129 0069 09       		.byte	(.L205-.L207)/2
 1130 006a 09       		.byte	(.L205-.L207)/2
 1131 006b 38       		.byte	(.L209-.L207)/2
 1132 006c 09       		.byte	(.L205-.L207)/2
 1133 006d 34       		.byte	(.L208-.L207)/2
 1134 006e 09       		.byte	(.L205-.L207)/2
 1135 006f 09       		.byte	(.L205-.L207)/2
 1136 0070 30       		.byte	(.L206-.L207)/2
 1137 0071 00       		.p2align 1
 1138              	.L205:
 1139              	.LVL137:
 475:printf.c      ****         case '0': flags |= FLAGS_ZEROPAD; format++; n = 1U; break;
 476:printf.c      ****         case '-': flags |= FLAGS_LEFT;    format++; n = 1U; break;
 477:printf.c      ****         case '+': flags |= FLAGS_PLUS;    format++; n = 1U; break;
 478:printf.c      ****         case ' ': flags |= FLAGS_SPACE;   format++; n = 1U; break;
 479:printf.c      ****         case '#': flags |= FLAGS_HASH;    format++; n = 1U; break;
 480:printf.c      ****         default :                                   n = 0U; break;
 481:printf.c      ****       }
 482:printf.c      ****     } while (n);
 1140              		.loc 1 482 14 is_stmt 1 view .LVU333
 483:printf.c      **** 
 484:printf.c      ****     // evaluate width field
 485:printf.c      ****     width = 0U;
 1141              		.loc 1 485 5 view .LVU334
 486:printf.c      ****     if (_is_digit(*format)) {
 1142              		.loc 1 486 5 view .LVU335
 1143              	.LBB94:
 1144              	.LBI94:
 156:printf.c      **** {
 1145              		.loc 1 156 20 view .LVU336
 1146              	.LBB95:
 158:printf.c      **** }
 1147              		.loc 1 158 3 view .LVU337
 158:printf.c      **** }
 1148              		.loc 1 158 3 is_stmt 0 view .LVU338
 1149              	.LBE95:
 1150              	.LBE94:
 1151              		.loc 1 486 8 discriminator 1 view .LVU339
 1152 0072 A0F13002 		sub	r2, r0, #48
 1153 0076 092A     		cmp	r2, #9
 1154 0078 40F2B380 		bls	.L531
 487:printf.c      ****       width = _atoi(&format);
 488:printf.c      ****     }
 489:printf.c      ****     else if (*format == '*') {
 1155              		.loc 1 489 10 is_stmt 1 view .LVU340
 1156              		.loc 1 489 13 is_stmt 0 view .LVU341
 1157 007c 2A28     		cmp	r0, #42
 1158 007e 00F0D580 		beq	.L532
 485:printf.c      ****     if (_is_digit(*format)) {
 1159              		.loc 1 485 11 view .LVU342
 1160 0082 0022     		movs	r2, #0
 1161 0084 0B92     		str	r2, [sp, #44]
 1162              	.LVL138:
 1163              	.L215:
 490:printf.c      ****       const int w = va_arg(va, int);
 491:printf.c      ****       if (w < 0) {
 492:printf.c      ****         flags |= FLAGS_LEFT;    // reverse padding
 493:printf.c      ****         width = (unsigned int)-w;
 494:printf.c      ****       }
 495:printf.c      ****       else {
 496:printf.c      ****         width = (unsigned int)w;
 497:printf.c      ****       }
 498:printf.c      ****       format++;
 499:printf.c      ****     }
 500:printf.c      **** 
 501:printf.c      ****     // evaluate precision field
 502:printf.c      ****     precision = 0U;
 1164              		.loc 1 502 5 is_stmt 1 view .LVU343
 503:printf.c      ****     if (*format == '.') {
 1165              		.loc 1 503 5 view .LVU344
 1166              		.loc 1 503 8 is_stmt 0 view .LVU345
 1167 0086 2E28     		cmp	r0, #46
 1168 0088 00F0C080 		beq	.L533
 1169              	.LVL139:
 1170              	.L519:
 502:printf.c      ****     if (*format == '.') {
 1171              		.loc 1 502 15 view .LVU346
 1172 008c 0026     		movs	r6, #0
 1173              	.LVL140:
 1174              	.L218:
 504:printf.c      ****       flags |= FLAGS_PRECISION;
 505:printf.c      ****       format++;
 506:printf.c      ****       if (_is_digit(*format)) {
 507:printf.c      ****         precision = _atoi(&format);
 508:printf.c      ****       }
 509:printf.c      ****       else if (*format == '*') {
 510:printf.c      ****         const int prec = (int)va_arg(va, int);
 511:printf.c      ****         precision = prec > 0 ? (unsigned int)prec : 0U;
 512:printf.c      ****         format++;
 513:printf.c      ****       }
 514:printf.c      ****     }
 515:printf.c      **** 
 516:printf.c      ****     // evaluate length field
 517:printf.c      ****     switch (*format) {
 1175              		.loc 1 517 5 is_stmt 1 view .LVU347
 1176 008e A0F16802 		sub	r2, r0, #104
 1177 0092 122A     		cmp	r2, #18
 1178 0094 2DD8     		bhi	.L221
 1179 0096 DFE812F0 		tbh	[pc, r2, lsl #1]
 1180              	.L223:
 1181 009a 3001     		.2byte	(.L226-.L223)/2
 1182 009c 2C00     		.2byte	(.L221-.L223)/2
 1183 009e 2A01     		.2byte	(.L225-.L223)/2
 1184 00a0 2C00     		.2byte	(.L221-.L223)/2
 1185 00a2 1E01     		.2byte	(.L224-.L223)/2
 1186 00a4 2C00     		.2byte	(.L221-.L223)/2
 1187 00a6 2C00     		.2byte	(.L221-.L223)/2
 1188 00a8 2C00     		.2byte	(.L221-.L223)/2
 1189 00aa 2C00     		.2byte	(.L221-.L223)/2
 1190 00ac 2C00     		.2byte	(.L221-.L223)/2
 1191 00ae 2C00     		.2byte	(.L221-.L223)/2
 1192 00b0 2C00     		.2byte	(.L221-.L223)/2
 1193 00b2 2700     		.2byte	(.L222-.L223)/2
 1194 00b4 2C00     		.2byte	(.L221-.L223)/2
 1195 00b6 2C00     		.2byte	(.L221-.L223)/2
 1196 00b8 2C00     		.2byte	(.L221-.L223)/2
 1197 00ba 2C00     		.2byte	(.L221-.L223)/2
 1198 00bc 2C00     		.2byte	(.L221-.L223)/2
 1199 00be 2700     		.2byte	(.L222-.L223)/2
 1200              	.LVL141:
 1201              		.p2align 1
 1202              	.L206:
 475:printf.c      ****         case '-': flags |= FLAGS_LEFT;    format++; n = 1U; break;
 1203              		.loc 1 475 19 view .LVU348
 475:printf.c      ****         case '-': flags |= FLAGS_LEFT;    format++; n = 1U; break;
 1204              		.loc 1 475 25 is_stmt 0 view .LVU349
 1205 00c0 44F00104 		orr	r4, r4, #1
 1206              	.LVL142:
 475:printf.c      ****         case '-': flags |= FLAGS_LEFT;    format++; n = 1U; break;
 1207              		.loc 1 475 43 is_stmt 1 view .LVU350
 475:printf.c      ****         case '-': flags |= FLAGS_LEFT;    format++; n = 1U; break;
 1208              		.loc 1 475 53 view .LVU351
 475:printf.c      ****         case '-': flags |= FLAGS_LEFT;    format++; n = 1U; break;
 1209              		.loc 1 475 61 view .LVU352
 457:printf.c      ****   {
 1210              		.loc 1 457 10 is_stmt 0 view .LVU353
 1211 00c4 9846     		mov	r8, r3
 1212 00c6 C2E7     		b	.L203
 1213              	.LVL143:
 1214              	.L208:
 476:printf.c      ****         case '+': flags |= FLAGS_PLUS;    format++; n = 1U; break;
 1215              		.loc 1 476 19 is_stmt 1 view .LVU354
 476:printf.c      ****         case '+': flags |= FLAGS_PLUS;    format++; n = 1U; break;
 1216              		.loc 1 476 25 is_stmt 0 view .LVU355
 1217 00c8 44F00204 		orr	r4, r4, #2
 1218              	.LVL144:
 476:printf.c      ****         case '+': flags |= FLAGS_PLUS;    format++; n = 1U; break;
 1219              		.loc 1 476 43 is_stmt 1 view .LVU356
 476:printf.c      ****         case '+': flags |= FLAGS_PLUS;    format++; n = 1U; break;
 1220              		.loc 1 476 53 view .LVU357
 476:printf.c      ****         case '+': flags |= FLAGS_PLUS;    format++; n = 1U; break;
 1221              		.loc 1 476 61 view .LVU358
 457:printf.c      ****   {
 1222              		.loc 1 457 10 is_stmt 0 view .LVU359
 1223 00cc 9846     		mov	r8, r3
 1224 00ce BEE7     		b	.L203
 1225              	.LVL145:
 1226              	.L209:
 477:printf.c      ****         case ' ': flags |= FLAGS_SPACE;   format++; n = 1U; break;
 1227              		.loc 1 477 19 is_stmt 1 view .LVU360
 477:printf.c      ****         case ' ': flags |= FLAGS_SPACE;   format++; n = 1U; break;
 1228              		.loc 1 477 25 is_stmt 0 view .LVU361
 1229 00d0 44F00404 		orr	r4, r4, #4
 1230              	.LVL146:
 477:printf.c      ****         case ' ': flags |= FLAGS_SPACE;   format++; n = 1U; break;
 1231              		.loc 1 477 43 is_stmt 1 view .LVU362
 477:printf.c      ****         case ' ': flags |= FLAGS_SPACE;   format++; n = 1U; break;
 1232              		.loc 1 477 53 view .LVU363
 477:printf.c      ****         case ' ': flags |= FLAGS_SPACE;   format++; n = 1U; break;
 1233              		.loc 1 477 61 view .LVU364
 457:printf.c      ****   {
 1234              		.loc 1 457 10 is_stmt 0 view .LVU365
 1235 00d4 9846     		mov	r8, r3
 1236 00d6 BAE7     		b	.L203
 1237              	.LVL147:
 1238              	.L210:
 479:printf.c      ****         default :                                   n = 0U; break;
 1239              		.loc 1 479 19 is_stmt 1 view .LVU366
 479:printf.c      ****         default :                                   n = 0U; break;
 1240              		.loc 1 479 25 is_stmt 0 view .LVU367
 1241 00d8 44F01004 		orr	r4, r4, #16
 1242              	.LVL148:
 479:printf.c      ****         default :                                   n = 0U; break;
 1243              		.loc 1 479 43 is_stmt 1 view .LVU368
 479:printf.c      ****         default :                                   n = 0U; break;
 1244              		.loc 1 479 53 view .LVU369
 479:printf.c      ****         default :                                   n = 0U; break;
 1245              		.loc 1 479 61 view .LVU370
 457:printf.c      ****   {
 1246              		.loc 1 457 10 is_stmt 0 view .LVU371
 1247 00dc 9846     		mov	r8, r3
 1248 00de B6E7     		b	.L203
 1249              	.LVL149:
 1250              	.L211:
 478:printf.c      ****         case '#': flags |= FLAGS_HASH;    format++; n = 1U; break;
 1251              		.loc 1 478 19 is_stmt 1 view .LVU372
 478:printf.c      ****         case '#': flags |= FLAGS_HASH;    format++; n = 1U; break;
 1252              		.loc 1 478 25 is_stmt 0 view .LVU373
 1253 00e0 44F00804 		orr	r4, r4, #8
 1254              	.LVL150:
 478:printf.c      ****         case '#': flags |= FLAGS_HASH;    format++; n = 1U; break;
 1255              		.loc 1 478 43 is_stmt 1 view .LVU374
 478:printf.c      ****         case '#': flags |= FLAGS_HASH;    format++; n = 1U; break;
 1256              		.loc 1 478 53 view .LVU375
 478:printf.c      ****         case '#': flags |= FLAGS_HASH;    format++; n = 1U; break;
 1257              		.loc 1 478 61 view .LVU376
 457:printf.c      ****   {
 1258              		.loc 1 457 10 is_stmt 0 view .LVU377
 1259 00e4 9846     		mov	r8, r3
 1260 00e6 B2E7     		b	.L203
 1261              	.LVL151:
 1262              	.L222:
 518:printf.c      ****       case 'l' :
 519:printf.c      ****         flags |= FLAGS_LONG;
 520:printf.c      ****         format++;
 521:printf.c      ****         if (*format == 'l') {
 522:printf.c      ****           flags |= FLAGS_LONG_LONG;
 523:printf.c      ****           format++;
 524:printf.c      ****         }
 525:printf.c      ****         break;
 526:printf.c      ****       case 'h' :
 527:printf.c      ****         flags |= FLAGS_SHORT;
 528:printf.c      ****         format++;
 529:printf.c      ****         if (*format == 'h') {
 530:printf.c      ****           flags |= FLAGS_CHAR;
 531:printf.c      ****           format++;
 532:printf.c      ****         }
 533:printf.c      ****         break;
 534:printf.c      **** #if defined(PRINTF_SUPPORT_PTRDIFF_T)
 535:printf.c      ****       case 't' :
 536:printf.c      ****         flags |= (sizeof(ptrdiff_t) == sizeof(long) ? FLAGS_LONG : FLAGS_LONG_LONG);
 537:printf.c      ****         format++;
 538:printf.c      ****         break;
 539:printf.c      **** #endif
 540:printf.c      ****       case 'j' :
 541:printf.c      ****         flags |= (sizeof(intmax_t) == sizeof(long) ? FLAGS_LONG : FLAGS_LONG_LONG);
 542:printf.c      ****         format++;
 543:printf.c      ****         break;
 544:printf.c      ****       case 'z' :
 545:printf.c      ****         flags |= (sizeof(size_t) == sizeof(long) ? FLAGS_LONG : FLAGS_LONG_LONG);
 1263              		.loc 1 545 9 is_stmt 1 view .LVU378
 521:printf.c      ****           flags |= FLAGS_LONG_LONG;
 1264              		.loc 1 521 13 is_stmt 0 view .LVU379
 1265 00e8 98F80100 		ldrb	r0, [r8, #1]	@ zero_extendqisi2
 1266              	.LVL152:
 1267              	.L520:
 1268              		.loc 1 545 15 view .LVU380
 1269 00ec 44F48074 		orr	r4, r4, #256
 1270              	.LVL153:
 546:printf.c      ****         format++;
 1271              		.loc 1 546 9 is_stmt 1 view .LVU381
 547:printf.c      ****         break;
 1272              		.loc 1 547 9 view .LVU382
 1273              		.loc 1 547 9 is_stmt 0 view .LVU383
 1274 00f0 0133     		adds	r3, r3, #1
 1275              	.LVL154:
 1276              	.L221:
 548:printf.c      ****       default :
 549:printf.c      ****         break;
 550:printf.c      ****     }
 551:printf.c      **** 
 552:printf.c      ****     // evaluate specifier
 553:printf.c      ****     switch (*format) {
 1277              		.loc 1 553 5 is_stmt 1 view .LVU384
 1278              		.loc 1 553 5 is_stmt 0 view .LVU385
 1279 00f2 6628     		cmp	r0, #102
 1280              	.LBB96:
 554:printf.c      ****       case 'd' :
 555:printf.c      ****       case 'i' :
 556:printf.c      ****       case 'u' :
 557:printf.c      ****       case 'x' :
 558:printf.c      ****       case 'X' :
 559:printf.c      ****       case 'o' :
 560:printf.c      ****       case 'b' : {
 561:printf.c      ****         // set the base
 562:printf.c      ****         unsigned int base;
 563:printf.c      ****         if (*format == 'x' || *format == 'X') {
 564:printf.c      ****           base = 16U;
 565:printf.c      ****         }
 566:printf.c      ****         else if (*format == 'o') {
 567:printf.c      ****           base =  8U;
 568:printf.c      ****         }
 569:printf.c      ****         else if (*format == 'b') {
 570:printf.c      ****           base =  2U;
 571:printf.c      ****         }
 572:printf.c      ****         else {
 573:printf.c      ****           base = 10U;
 574:printf.c      ****           flags &= ~FLAGS_HASH;   // no hash for dec format
 575:printf.c      ****         }
 576:printf.c      ****         // uppercase
 577:printf.c      ****         if (*format == 'X') {
 578:printf.c      ****           flags |= FLAGS_UPPERCASE;
 579:printf.c      ****         }
 580:printf.c      **** 
 581:printf.c      ****         // no plus or space flag for u, x, X, o, b
 582:printf.c      ****         if ((*format != 'i') && (*format != 'd')) {
 583:printf.c      ****           flags &= ~(FLAGS_PLUS | FLAGS_SPACE);
 584:printf.c      ****         }
 585:printf.c      **** 
 586:printf.c      ****         // ignore '0' flag when precision is given
 587:printf.c      ****         if (flags & FLAGS_PRECISION) {
 588:printf.c      ****           flags &= ~FLAGS_ZEROPAD;
 589:printf.c      ****         }
 590:printf.c      **** 
 591:printf.c      ****         // convert the integer
 592:printf.c      ****         if ((*format == 'i') || (*format == 'd')) {
 593:printf.c      ****           // signed
 594:printf.c      ****           if (flags & FLAGS_LONG_LONG) {
 595:printf.c      **** #if defined(PRINTF_SUPPORT_LONG_LONG)
 596:printf.c      ****             const long long value = va_arg(va, long long);
 597:printf.c      ****             idx = _ntoa_long_long(out, buffer, idx, maxlen, (unsigned long long)(value > 0 ? value 
 598:printf.c      **** #endif
 599:printf.c      ****           }
 600:printf.c      ****           else if (flags & FLAGS_LONG) {
 601:printf.c      ****             const long value = va_arg(va, long);
 602:printf.c      ****             idx = _ntoa_long(out, buffer, idx, maxlen, (unsigned long)(value > 0 ? value : 0 - valu
 603:printf.c      ****           }
 604:printf.c      ****           else {
 605:printf.c      ****             const int value = (flags & FLAGS_CHAR) ? (char)va_arg(va, int) : (flags & FLAGS_SHORT) 
 606:printf.c      ****             idx = _ntoa_long(out, buffer, idx, maxlen, (unsigned int)(value > 0 ? value : 0 - value
 607:printf.c      ****           }
 608:printf.c      ****         }
 609:printf.c      ****         else {
 610:printf.c      ****           // unsigned
 611:printf.c      ****           if (flags & FLAGS_LONG_LONG) {
 612:printf.c      **** #if defined(PRINTF_SUPPORT_LONG_LONG)
 613:printf.c      ****             idx = _ntoa_long_long(out, buffer, idx, maxlen, va_arg(va, unsigned long long), false, 
 614:printf.c      **** #endif
 615:printf.c      ****           }
 616:printf.c      ****           else if (flags & FLAGS_LONG) {
 617:printf.c      ****             idx = _ntoa_long(out, buffer, idx, maxlen, va_arg(va, unsigned long), false, base, prec
 618:printf.c      ****           }
 619:printf.c      ****           else {
 620:printf.c      ****             const unsigned int value = (flags & FLAGS_CHAR) ? (unsigned char)va_arg(va, unsigned in
 621:printf.c      ****             idx = _ntoa_long(out, buffer, idx, maxlen, value, false, base, precision, width, flags)
 622:printf.c      ****           }
 623:printf.c      ****         }
 624:printf.c      ****         format++;
 1281              		.loc 1 624 15 view .LVU386
 1282 00f4 9846     		mov	r8, r3
 1283              	.LBE96:
 553:printf.c      ****       case 'd' :
 1284              		.loc 1 553 5 view .LVU387
 1285 00f6 43D8     		bhi	.L229
 553:printf.c      ****       case 'd' :
 1286              		.loc 1 553 5 view .LVU388
 1287 00f8 4528     		cmp	r0, #69
 1288 00fa 26D9     		bls	.L232
 1289 00fc A0F14603 		sub	r3, r0, #70
 1290              	.LVL155:
 553:printf.c      ****       case 'd' :
 1291              		.loc 1 553 5 view .LVU389
 1292 0100 202B     		cmp	r3, #32
 1293 0102 22D8     		bhi	.L232
 1294 0104 DFE813F0 		tbh	[pc, r3, lsl #1]
 1295              	.L237:
 1296 0108 0201     		.2byte	(.L236-.L237)/2
 1297 010a 2100     		.2byte	(.L232-.L237)/2
 1298 010c 2100     		.2byte	(.L232-.L237)/2
 1299 010e 2100     		.2byte	(.L232-.L237)/2
 1300 0110 2100     		.2byte	(.L232-.L237)/2
 1301 0112 2100     		.2byte	(.L232-.L237)/2
 1302 0114 2100     		.2byte	(.L232-.L237)/2
 1303 0116 2100     		.2byte	(.L232-.L237)/2
 1304 0118 2100     		.2byte	(.L232-.L237)/2
 1305 011a 2100     		.2byte	(.L232-.L237)/2
 1306 011c 2100     		.2byte	(.L232-.L237)/2
 1307 011e 2100     		.2byte	(.L232-.L237)/2
 1308 0120 2100     		.2byte	(.L232-.L237)/2
 1309 0122 2100     		.2byte	(.L232-.L237)/2
 1310 0124 2100     		.2byte	(.L232-.L237)/2
 1311 0126 2100     		.2byte	(.L232-.L237)/2
 1312 0128 2100     		.2byte	(.L232-.L237)/2
 1313 012a 2100     		.2byte	(.L232-.L237)/2
 1314 012c 4402     		.2byte	(.L238-.L237)/2
 1315 012e 2100     		.2byte	(.L232-.L237)/2
 1316 0130 2100     		.2byte	(.L232-.L237)/2
 1317 0132 2100     		.2byte	(.L232-.L237)/2
 1318 0134 2100     		.2byte	(.L232-.L237)/2
 1319 0136 2100     		.2byte	(.L232-.L237)/2
 1320 0138 2100     		.2byte	(.L232-.L237)/2
 1321 013a 2100     		.2byte	(.L232-.L237)/2
 1322 013c 2100     		.2byte	(.L232-.L237)/2
 1323 013e 2100     		.2byte	(.L232-.L237)/2
 1324 0140 4402     		.2byte	(.L238-.L237)/2
 1325 0142 DD01     		.2byte	(.L239-.L237)/2
 1326 0144 4402     		.2byte	(.L238-.L237)/2
 1327 0146 2100     		.2byte	(.L232-.L237)/2
 1328 0148 0201     		.2byte	(.L236-.L237)/2
 1329              		.p2align 1
 1330              	.L232:
 625:printf.c      ****         break;
 626:printf.c      ****       }
 627:printf.c      **** #if defined(PRINTF_SUPPORT_FLOAT)
 628:printf.c      ****       case 'f' :
 629:printf.c      ****       case 'F' :
 630:printf.c      ****         idx = _ftoa(out, buffer, idx, maxlen, va_arg(va, double), precision, width, flags);
 631:printf.c      ****         format++;
 632:printf.c      ****         break;
 633:printf.c      **** #endif  // PRINTF_SUPPORT_FLOAT
 634:printf.c      ****       case 'c' : {
 635:printf.c      ****         unsigned int l = 1U;
 636:printf.c      ****         // pre padding
 637:printf.c      ****         if (!(flags & FLAGS_LEFT)) {
 638:printf.c      ****           while (l++ < width) {
 639:printf.c      ****             out(' ', buffer, idx++, maxlen);
 640:printf.c      ****           }
 641:printf.c      ****         }
 642:printf.c      ****         // char output
 643:printf.c      ****         out((char)va_arg(va, int), buffer, idx++, maxlen);
 644:printf.c      ****         // post padding
 645:printf.c      ****         if (flags & FLAGS_LEFT) {
 646:printf.c      ****           while (l++ < width) {
 647:printf.c      ****             out(' ', buffer, idx++, maxlen);
 648:printf.c      ****           }
 649:printf.c      ****         }
 650:printf.c      ****         format++;
 651:printf.c      ****         break;
 652:printf.c      ****       }
 653:printf.c      **** 
 654:printf.c      ****       case 's' : {
 655:printf.c      ****         const char* p = va_arg(va, char*);
 656:printf.c      ****         unsigned int l = _strnlen_s(p, precision ? precision : (size_t)-1);
 657:printf.c      ****         // pre padding
 658:printf.c      ****         if (flags & FLAGS_PRECISION) {
 659:printf.c      ****           l = (l < precision ? l : precision);
 660:printf.c      ****         }
 661:printf.c      ****         if (!(flags & FLAGS_LEFT)) {
 662:printf.c      ****           while (l++ < width) {
 663:printf.c      ****             out(' ', buffer, idx++, maxlen);
 664:printf.c      ****           }
 665:printf.c      ****         }
 666:printf.c      ****         // string output
 667:printf.c      ****         while ((*p != 0) && (!(flags & FLAGS_PRECISION) || precision--)) {
 668:printf.c      ****           out(*(p++), buffer, idx++, maxlen);
 669:printf.c      ****         }
 670:printf.c      ****         // post padding
 671:printf.c      ****         if (flags & FLAGS_LEFT) {
 672:printf.c      ****           while (l++ < width) {
 673:printf.c      ****             out(' ', buffer, idx++, maxlen);
 674:printf.c      ****           }
 675:printf.c      ****         }
 676:printf.c      ****         format++;
 677:printf.c      ****         break;
 678:printf.c      ****       }
 679:printf.c      **** 
 680:printf.c      ****       case 'p' : {
 681:printf.c      ****         width = sizeof(void*) * 2U;
 682:printf.c      ****         flags |= FLAGS_ZEROPAD | FLAGS_UPPERCASE;
 683:printf.c      **** #if defined(PRINTF_SUPPORT_LONG_LONG)
 684:printf.c      ****         const bool is_ll = sizeof(uintptr_t) == sizeof(long long);
 685:printf.c      ****         if (is_ll) {
 686:printf.c      ****           idx = _ntoa_long_long(out, buffer, idx, maxlen, (uintptr_t)va_arg(va, void*), false, 16U,
 687:printf.c      ****         }
 688:printf.c      ****         else {
 689:printf.c      **** #endif
 690:printf.c      ****           idx = _ntoa_long(out, buffer, idx, maxlen, (unsigned long)((uintptr_t)va_arg(va, void*)),
 691:printf.c      **** #if defined(PRINTF_SUPPORT_LONG_LONG)
 692:printf.c      ****         }
 693:printf.c      **** #endif
 694:printf.c      ****         format++;
 695:printf.c      ****         break;
 696:printf.c      ****       }
 697:printf.c      **** 
 698:printf.c      ****       case '%' :
 699:printf.c      ****         out('%', buffer, idx++, maxlen);
 700:printf.c      ****         format++;
 701:printf.c      ****         break;
 702:printf.c      **** 
 703:printf.c      ****       default :
 704:printf.c      ****         out(*format, buffer, idx++, maxlen);
 1331              		.loc 1 704 9 is_stmt 1 view .LVU390
 1332 014a 4A46     		mov	r2, r9
 1333 014c 099B     		ldr	r3, [sp, #36]
 1334 014e 0899     		ldr	r1, [sp, #32]
 1335 0150 D847     		blx	fp
 1336              	.LVL156:
 457:printf.c      ****   {
 1337              		.loc 1 457 10 is_stmt 0 view .LVU391
 1338 0152 98F80000 		ldrb	r0, [r8]	@ zero_extendqisi2
 1339              		.loc 1 704 9 view .LVU392
 1340 0156 09F10109 		add	r9, r9, #1
 1341              	.LVL157:
 705:printf.c      ****         format++;
 1342              		.loc 1 705 9 is_stmt 1 view .LVU393
 706:printf.c      ****         break;
 1343              		.loc 1 706 9 view .LVU394
 457:printf.c      ****   {
 1344              		.loc 1 457 10 view .LVU395
 1345 015a 0028     		cmp	r0, #0
 1346 015c 7FF472AF 		bne	.L373
 1347              	.LVL158:
 1348              	.L529:
 707:printf.c      ****     }
 708:printf.c      ****   }
 709:printf.c      **** 
 710:printf.c      ****   // termination
 711:printf.c      ****   out((char)0, buffer, idx < maxlen ? idx : maxlen - 1U, maxlen);
 712:printf.c      **** 
 713:printf.c      ****   // return written chars without terminating \0
 714:printf.c      ****   return (int)idx;
 1349              		.loc 1 714 10 is_stmt 0 view .LVU396
 1350 0160 DDF824A0 		ldr	r10, [sp, #36]
 1351 0164 4C46     		mov	r4, r9
 1352              	.LVL159:
 1353              	.L374:
 711:printf.c      **** 
 1354              		.loc 1 711 3 is_stmt 1 view .LVU397
 1355 0166 CA45     		cmp	r10, r9
 1356 0168 01D8     		bhi	.L375
 711:printf.c      **** 
 1357              		.loc 1 711 3 is_stmt 0 discriminator 1 view .LVU398
 1358 016a 0AF1FF39 		add	r9, r10, #-1
 1359              	.L375:
 711:printf.c      **** 
 1360              		.loc 1 711 3 discriminator 4 view .LVU399
 1361 016e 0899     		ldr	r1, [sp, #32]
 1362 0170 5346     		mov	r3, r10
 1363 0172 4A46     		mov	r2, r9
 1364 0174 0020     		movs	r0, #0
 1365 0176 D847     		blx	fp
 1366              	.LVL160:
 1367              		.loc 1 714 3 is_stmt 1 view .LVU400
 715:printf.c      **** }
 1368              		.loc 1 715 1 is_stmt 0 view .LVU401
 1369 0178 2046     		mov	r0, r4
 1370 017a 1DB0     		add	sp, sp, #116
 1371              		.cfi_remember_state
 1372              		.cfi_def_cfa_offset 36
 1373              		@ sp needed
 1374 017c BDE8F08F 		pop	{r4, r5, r6, r7, r8, r9, r10, fp, pc}
 1375              	.LVL161:
 1376              	.L229:
 1377              		.cfi_restore_state
 553:printf.c      ****       case 'd' :
 1378              		.loc 1 553 5 view .LVU402
 1379 0180 A0F16903 		sub	r3, r0, #105
 1380              	.LVL162:
 553:printf.c      ****       case 'd' :
 1381              		.loc 1 553 5 view .LVU403
 1382 0184 DBB2     		uxtb	r3, r3
 1383 0186 0F2B     		cmp	r3, #15
 1384 0188 DFD8     		bhi	.L232
 1385 018a 0122     		movs	r2, #1
 1386 018c 9A40     		lsls	r2, r2, r3
 1387 018e 49F24101 		movw	r1, #36929
 1388 0192 0A40     		ands	r2, r2, r1
 1389 0194 40F0B381 		bne	.L233
 1390 0198 0A2B     		cmp	r3, #10
 1391 019a 58D0     		beq	.L234
 1392 019c 072B     		cmp	r3, #7
 1393 019e D4D1     		bne	.L232
 1394              	.LBB172:
 681:printf.c      ****         flags |= FLAGS_ZEROPAD | FLAGS_UPPERCASE;
 1395              		.loc 1 681 9 is_stmt 1 view .LVU404
 1396              	.LVL163:
 682:printf.c      **** #if defined(PRINTF_SUPPORT_LONG_LONG)
 1397              		.loc 1 682 9 view .LVU405
 684:printf.c      ****         if (is_ll) {
 1398              		.loc 1 684 9 view .LVU406
 685:printf.c      ****           idx = _ntoa_long_long(out, buffer, idx, maxlen, (uintptr_t)va_arg(va, void*), false, 16U,
 1399              		.loc 1 685 9 view .LVU407
 690:printf.c      **** #if defined(PRINTF_SUPPORT_LONG_LONG)
 1400              		.loc 1 690 11 view .LVU408
 690:printf.c      **** #if defined(PRINTF_SUPPORT_LONG_LONG)
 1401              		.loc 1 690 81 is_stmt 0 view .LVU409
 1402 01a0 0A9D     		ldr	r5, [sp, #40]
 1403              	.LVL164:
 690:printf.c      **** #if defined(PRINTF_SUPPORT_LONG_LONG)
 1404              		.loc 1 690 81 view .LVU410
 1405 01a2 55F8043B 		ldr	r3, [r5], #4
 1406              	.LVL165:
 1407              	.LBB173:
 1408              	.LBI173:
 249:printf.c      **** {
 1409              		.loc 1 249 15 is_stmt 1 view .LVU411
 1410              	.LBB174:
 251:printf.c      ****   size_t len = 0U;
 1411              		.loc 1 251 3 view .LVU412
 252:printf.c      **** 
 1412              		.loc 1 252 3 view .LVU413
 255:printf.c      ****     flags &= ~FLAGS_HASH;
 1413              		.loc 1 255 3 view .LVU414
 255:printf.c      ****     flags &= ~FLAGS_HASH;
 1414              		.loc 1 255 6 is_stmt 0 view .LVU415
 1415 01a6 002B     		cmp	r3, #0
 1416 01a8 00F0D481 		beq	.L367
 1417              	.LBE174:
 1418              	.LBE173:
 682:printf.c      **** #if defined(PRINTF_SUPPORT_LONG_LONG)
 1419              		.loc 1 682 15 view .LVU416
 1420 01ac 44F02107 		orr	r7, r4, #33
 1421              	.LVL166:
 1422              	.L368:
 682:printf.c      **** #if defined(PRINTF_SUPPORT_LONG_LONG)
 1423              		.loc 1 682 15 view .LVU417
 1424 01b0 14A9     		add	r1, sp, #80
 1425 01b2 1291     		str	r1, [sp, #72]
 1426 01b4 0C46     		mov	r4, r1
 1427              	.LVL167:
 682:printf.c      **** #if defined(PRINTF_SUPPORT_LONG_LONG)
 1428              		.loc 1 682 15 view .LVU418
 1429 01b6 03E0     		b	.L372
 1430              	.LVL168:
 1431              	.L534:
 1432              	.LBB181:
 1433              	.LBB178:
 265:printf.c      ****   }
 1434              		.loc 1 265 20 discriminator 1 view .LVU419
 1435 01b8 202A     		cmp	r2, #32
 1436 01ba 00F0D581 		beq	.L369
 1437              	.LBB175:
 264:printf.c      ****     } while (value && (len < PRINTF_NTOA_BUFFER_SIZE));
 1438              		.loc 1 264 13 view .LVU420
 1439 01be 0B46     		mov	r3, r1
 1440              	.LVL169:
 1441              	.L372:
 264:printf.c      ****     } while (value && (len < PRINTF_NTOA_BUFFER_SIZE));
 1442              		.loc 1 264 13 view .LVU421
 1443              	.LBE175:
 261:printf.c      ****       const char digit = (char)(value % base);
 1444              		.loc 1 261 5 is_stmt 1 view .LVU422
 1445              	.LBB176:
 262:printf.c      ****       buf[len++] = digit < 10 ? '0' + digit : (flags & FLAGS_UPPERCASE ? 'A' : 'a') + digit - 10;
 1446              		.loc 1 262 7 view .LVU423
 262:printf.c      ****       buf[len++] = digit < 10 ? '0' + digit : (flags & FLAGS_UPPERCASE ? 'A' : 'a') + digit - 10;
 1447              		.loc 1 262 39 is_stmt 0 view .LVU424
 1448 01c0 03F00F01 		and	r1, r3, #15
 263:printf.c      ****       value /= base;
 1449              		.loc 1 263 18 view .LVU425
 1450 01c4 0929     		cmp	r1, #9
 262:printf.c      ****       buf[len++] = digit < 10 ? '0' + digit : (flags & FLAGS_UPPERCASE ? 'A' : 'a') + digit - 10;
 1451              		.loc 1 262 18 view .LVU426
 1452 01c6 0846     		mov	r0, r1
 1453              	.LVL170:
 263:printf.c      ****       value /= base;
 1454              		.loc 1 263 7 is_stmt 1 view .LVU427
 263:printf.c      ****       value /= base;
 1455              		.loc 1 263 18 is_stmt 0 discriminator 7 view .LVU428
 1456 01c8 8CBF     		ite	hi
 1457 01ca 00F13701 		addhi	r1, r0, #55
 1458              	.LVL171:
 263:printf.c      ****       value /= base;
 1459              		.loc 1 263 18 discriminator 1 view .LVU429
 1460 01ce 3031     		addls	r1, r1, #48
 1461              	.LBE176:
 265:printf.c      ****   }
 1462              		.loc 1 265 20 view .LVU430
 1463 01d0 0F2B     		cmp	r3, #15
 1464              	.LBB177:
 263:printf.c      ****       value /= base;
 1465              		.loc 1 263 18 discriminator 8 view .LVU431
 1466 01d2 04F8011B 		strb	r1, [r4], #1
 263:printf.c      ****       value /= base;
 1467              		.loc 1 263 14 discriminator 8 view .LVU432
 1468 01d6 02F10102 		add	r2, r2, #1
 1469              	.LVL172:
 264:printf.c      ****     } while (value && (len < PRINTF_NTOA_BUFFER_SIZE));
 1470              		.loc 1 264 7 is_stmt 1 view .LVU433
 264:printf.c      ****     } while (value && (len < PRINTF_NTOA_BUFFER_SIZE));
 1471              		.loc 1 264 13 is_stmt 0 view .LVU434
 1472 01da 4FEA1311 		lsr	r1, r3, #4
 1473              	.LVL173:
 264:printf.c      ****     } while (value && (len < PRINTF_NTOA_BUFFER_SIZE));
 1474              		.loc 1 264 13 view .LVU435
 1475              	.LBE177:
 265:printf.c      ****   }
 1476              		.loc 1 265 20 is_stmt 1 view .LVU436
 1477 01de EBD8     		bhi	.L534
 1478 01e0 C2E1     		b	.L369
 1479              	.LVL174:
 1480              	.L531:
 265:printf.c      ****   }
 1481              		.loc 1 265 20 is_stmt 0 view .LVU437
 1482              	.LBE178:
 1483              	.LBE181:
 1484              	.LBE172:
 1485              	.LBB184:
 1486              	.LBB185:
 165:printf.c      ****   while (_is_digit(**str)) {
 1487              		.loc 1 165 16 view .LVU438
 1488 01e2 0022     		movs	r2, #0
 1489 01e4 00E0     		b	.L212
 1490              	.LVL175:
 1491              	.L444:
 165:printf.c      ****   while (_is_digit(**str)) {
 1492              		.loc 1 165 16 view .LVU439
 1493 01e6 0133     		adds	r3, r3, #1
 1494              	.LVL176:
 1495              	.L212:
 167:printf.c      ****   }
 1496              		.loc 1 167 5 is_stmt 1 view .LVU440
 167:printf.c      ****   }
 1497              		.loc 1 167 11 is_stmt 0 view .LVU441
 1498 01e8 02EB8202 		add	r2, r2, r2, lsl #2
 1499              	.LVL177:
 167:printf.c      ****   }
 1500              		.loc 1 167 17 view .LVU442
 1501 01ec 00EB4202 		add	r2, r0, r2, lsl #1
 166:printf.c      ****     i = i * 10U + (unsigned int)(*((*str)++) - '0');
 1502              		.loc 1 166 10 view .LVU443
 1503 01f0 1878     		ldrb	r0, [r3]	@ zero_extendqisi2
 166:printf.c      ****     i = i * 10U + (unsigned int)(*((*str)++) - '0');
 1504              		.loc 1 166 10 discriminator 1 view .LVU444
 1505 01f2 A0F13001 		sub	r1, r0, #48
 1506 01f6 0929     		cmp	r1, #9
 167:printf.c      ****   }
 1507              		.loc 1 167 42 view .LVU445
 1508 01f8 9846     		mov	r8, r3
 167:printf.c      ****   }
 1509              		.loc 1 167 7 view .LVU446
 1510 01fa A2F13002 		sub	r2, r2, #48
 1511              	.LVL178:
 166:printf.c      ****     i = i * 10U + (unsigned int)(*((*str)++) - '0');
 1512              		.loc 1 166 10 is_stmt 1 view .LVU447
 1513              	.LBB186:
 1514              	.LBI186:
 156:printf.c      **** {
 1515              		.loc 1 156 20 view .LVU448
 1516              	.LBB187:
 158:printf.c      **** }
 1517              		.loc 1 158 3 view .LVU449
 158:printf.c      **** }
 1518              		.loc 1 158 3 is_stmt 0 view .LVU450
 1519              	.LBE187:
 1520              	.LBE186:
 166:printf.c      ****     i = i * 10U + (unsigned int)(*((*str)++) - '0');
 1521              		.loc 1 166 10 discriminator 1 view .LVU451
 1522 01fe F2D9     		bls	.L444
 1523              	.LBE185:
 1524              	.LBE184:
 503:printf.c      ****       flags |= FLAGS_PRECISION;
 1525              		.loc 1 503 8 view .LVU452
 1526 0200 2E28     		cmp	r0, #46
 1527 0202 0B92     		str	r2, [sp, #44]
 1528 0204 03F10103 		add	r3, r3, #1
 1529              	.LVL179:
 502:printf.c      ****     if (*format == '.') {
 1530              		.loc 1 502 5 is_stmt 1 view .LVU453
 503:printf.c      ****       flags |= FLAGS_PRECISION;
 1531              		.loc 1 503 5 view .LVU454
 503:printf.c      ****       flags |= FLAGS_PRECISION;
 1532              		.loc 1 503 8 is_stmt 0 view .LVU455
 1533 0208 7FF440AF 		bne	.L519
 1534              	.LVL180:
 1535              	.L533:
 506:printf.c      ****         precision = _atoi(&format);
 1536              		.loc 1 506 11 view .LVU456
 1537 020c 98F80100 		ldrb	r0, [r8, #1]	@ zero_extendqisi2
 506:printf.c      ****         precision = _atoi(&format);
 1538              		.loc 1 506 10 discriminator 1 view .LVU457
 1539 0210 A0F13001 		sub	r1, r0, #48
 1540 0214 0929     		cmp	r1, #9
 504:printf.c      ****       format++;
 1541              		.loc 1 504 13 view .LVU458
 1542 0216 44F48064 		orr	r4, r4, #1024
 1543              	.LVL181:
 505:printf.c      ****       if (_is_digit(*format)) {
 1544              		.loc 1 505 13 view .LVU459
 1545 021a 1A46     		mov	r2, r3
 504:printf.c      ****       format++;
 1546              		.loc 1 504 7 is_stmt 1 view .LVU460
 1547              	.LVL182:
 505:printf.c      ****       if (_is_digit(*format)) {
 1548              		.loc 1 505 7 view .LVU461
 506:printf.c      ****         precision = _atoi(&format);
 1549              		.loc 1 506 7 view .LVU462
 1550              	.LBB188:
 1551              	.LBI188:
 156:printf.c      **** {
 1552              		.loc 1 156 20 view .LVU463
 1553              	.LBB189:
 158:printf.c      **** }
 1554              		.loc 1 158 3 view .LVU464
 158:printf.c      **** }
 1555              		.loc 1 158 3 is_stmt 0 view .LVU465
 1556              	.LBE189:
 1557              	.LBE188:
 506:printf.c      ****         precision = _atoi(&format);
 1558              		.loc 1 506 10 discriminator 1 view .LVU466
 1559 021c 40F27D81 		bls	.L535
 509:printf.c      ****         const int prec = (int)va_arg(va, int);
 1560              		.loc 1 509 12 is_stmt 1 view .LVU467
 509:printf.c      ****         const int prec = (int)va_arg(va, int);
 1561              		.loc 1 509 15 is_stmt 0 view .LVU468
 1562 0220 2A28     		cmp	r0, #42
 1563 0222 00F08A81 		beq	.L536
 1564              	.LVL183:
 505:printf.c      ****       if (_is_digit(*format)) {
 1565              		.loc 1 505 13 view .LVU469
 1566 0226 9846     		mov	r8, r3
 1567 0228 0133     		adds	r3, r3, #1
 1568 022a 2FE7     		b	.L519
 1569              	.LVL184:
 1570              	.L532:
 1571              	.LBB190:
 490:printf.c      ****       if (w < 0) {
 1572              		.loc 1 490 7 is_stmt 1 view .LVU470
 490:printf.c      ****       if (w < 0) {
 1573              		.loc 1 490 17 is_stmt 0 view .LVU471
 1574 022c 0A9A     		ldr	r2, [sp, #40]
 1575              	.LVL185:
 490:printf.c      ****       if (w < 0) {
 1576              		.loc 1 490 17 view .LVU472
 1577              	.LBE190:
 503:printf.c      ****       flags |= FLAGS_PRECISION;
 1578              		.loc 1 503 9 view .LVU473
 1579 022e 98F80100 		ldrb	r0, [r8, #1]	@ zero_extendqisi2
 1580              	.LBB191:
 490:printf.c      ****       if (w < 0) {
 1581              		.loc 1 490 17 view .LVU474
 1582 0232 52F8045B 		ldr	r5, [r2], #4
 1583              	.LVL186:
 491:printf.c      ****         flags |= FLAGS_LEFT;    // reverse padding
 1584              		.loc 1 491 7 is_stmt 1 view .LVU475
 490:printf.c      ****       if (w < 0) {
 1585              		.loc 1 490 17 is_stmt 0 view .LVU476
 1586 0236 0A92     		str	r2, [sp, #40]
 491:printf.c      ****         flags |= FLAGS_LEFT;    // reverse padding
 1587              		.loc 1 491 10 view .LVU477
 1588 0238 002D     		cmp	r5, #0
 492:printf.c      ****         width = (unsigned int)-w;
 1589              		.loc 1 492 9 is_stmt 1 view .LVU478
 493:printf.c      ****       }
 1590              		.loc 1 493 31 is_stmt 0 view .LVU479
 1591 023a B8BF     		it	lt
 1592 023c 6942     		rsblt	r1, r5, #0
 498:printf.c      ****     }
 1593              		.loc 1 498 13 view .LVU480
 1594 023e 9846     		mov	r8, r3
 492:printf.c      ****         width = (unsigned int)-w;
 1595              		.loc 1 492 15 view .LVU481
 1596 0240 BABF     		itte	lt
 1597 0242 44F00204 		orrlt	r4, r4, #2
 1598              	.LVL187:
 493:printf.c      ****       }
 1599              		.loc 1 493 9 is_stmt 1 view .LVU482
 493:printf.c      ****       }
 1600              		.loc 1 493 31 is_stmt 0 view .LVU483
 1601 0246 0B91     		strlt	r1, [sp, #44]
 1602              	.LVL188:
 496:printf.c      ****       }
 1603              		.loc 1 496 9 is_stmt 1 view .LVU484
 496:printf.c      ****       }
 1604              		.loc 1 496 15 is_stmt 0 view .LVU485
 1605 0248 0B95     		strge	r5, [sp, #44]
 1606              	.LVL189:
 498:printf.c      ****     }
 1607              		.loc 1 498 7 is_stmt 1 view .LVU486
 498:printf.c      ****     }
 1608              		.loc 1 498 7 is_stmt 0 view .LVU487
 1609 024a 0133     		adds	r3, r3, #1
 1610 024c 1BE7     		b	.L215
 1611              	.LVL190:
 1612              	.L234:
 498:printf.c      ****     }
 1613              		.loc 1 498 7 view .LVU488
 1614              	.LBE191:
 1615              	.LBB192:
 655:printf.c      ****         unsigned int l = _strnlen_s(p, precision ? precision : (size_t)-1);
 1616              		.loc 1 655 9 is_stmt 1 view .LVU489
 655:printf.c      ****         unsigned int l = _strnlen_s(p, precision ? precision : (size_t)-1);
 1617              		.loc 1 655 21 is_stmt 0 view .LVU490
 1618 024e DDF828C0 		ldr	ip, [sp, #40]
 1619              	.LVL191:
 655:printf.c      ****         unsigned int l = _strnlen_s(p, precision ? precision : (size_t)-1);
 1620              		.loc 1 655 21 view .LVU491
 1621 0252 5CF8047B 		ldr	r7, [ip], #4
 1622              	.LVL192:
 656:printf.c      ****         // pre padding
 1623              		.loc 1 656 9 is_stmt 1 view .LVU492
 1624              	.LBB193:
 1625              	.LBB194:
 149:printf.c      ****   return (unsigned int)(s - str);
 1626              		.loc 1 149 17 is_stmt 0 discriminator 1 view .LVU493
 1627 0256 3878     		ldrb	r0, [r7]	@ zero_extendqisi2
 1628              	.LBE194:
 1629              	.LBE193:
 656:printf.c      ****         // pre padding
 1630              		.loc 1 656 26 discriminator 2 view .LVU494
 1631 0258 002E     		cmp	r6, #0
 1632 025a 14BF     		ite	ne
 1633 025c 3146     		movne	r1, r6
 1634 025e 4FF0FF31 		moveq	r1, #-1
 1635              	.LVL193:
 1636              	.LBB198:
 1637              	.LBB195:
 149:printf.c      ****   return (unsigned int)(s - str);
 1638              		.loc 1 149 20 is_stmt 1 discriminator 1 view .LVU495
 1639 0262 0028     		cmp	r0, #0
 1640 0264 00F01985 		beq	.L537
 1641 0268 3944     		add	r1, r1, r7
 1642 026a 3B46     		mov	r3, r7
 1643 026c 04E0     		b	.L346
 1644              	.LVL194:
 1645              	.L352:
 149:printf.c      ****   return (unsigned int)(s - str);
 1646              		.loc 1 149 20 is_stmt 0 discriminator 1 view .LVU496
 1647 026e 13F8012F 		ldrb	r2, [r3, #1]!	@ zero_extendqisi2
 1648              	.LVL195:
 149:printf.c      ****   return (unsigned int)(s - str);
 1649              		.loc 1 149 20 discriminator 1 view .LVU497
 1650 0272 002A     		cmp	r2, #0
 1651 0274 00F0ED81 		beq	.L538
 1652              	.LVL196:
 1653              	.L346:
 149:printf.c      ****   return (unsigned int)(s - str);
 1654              		.loc 1 149 34 is_stmt 1 discriminator 4 view .LVU498
 149:printf.c      ****   return (unsigned int)(s - str);
 1655              		.loc 1 149 20 discriminator 1 view .LVU499
 149:printf.c      ****   return (unsigned int)(s - str);
 1656              		.loc 1 149 20 is_stmt 0 discriminator 3 view .LVU500
 1657 0278 9942     		cmp	r1, r3
 1658 027a F8D1     		bne	.L352
 150:printf.c      **** }
 1659              		.loc 1 150 27 view .LVU501
 1660 027c A1EB070A 		sub	r10, r1, r7
 1661              	.LVL197:
 1662              	.L347:
 150:printf.c      **** }
 1663              		.loc 1 150 3 is_stmt 1 view .LVU502
 150:printf.c      **** }
 1664              		.loc 1 150 3 is_stmt 0 view .LVU503
 1665              	.LBE195:
 1666              	.LBE198:
 658:printf.c      ****           l = (l < precision ? l : precision);
 1667              		.loc 1 658 9 is_stmt 1 view .LVU504
 658:printf.c      ****           l = (l < precision ? l : precision);
 1668              		.loc 1 658 12 is_stmt 0 view .LVU505
 1669 0280 6505     		lsls	r5, r4, #21
 1670 0282 40F1D081 		bpl	.L353
 659:printf.c      ****         }
 1671              		.loc 1 659 11 is_stmt 1 view .LVU506
 659:printf.c      ****         }
 1672              		.loc 1 659 13 is_stmt 0 view .LVU507
 1673 0286 B245     		cmp	r10, r6
 1674 0288 28BF     		it	cs
 1675 028a B246     		movcs	r10, r6
 661:printf.c      ****           while (l++ < width) {
 1676              		.loc 1 661 9 is_stmt 1 view .LVU508
 661:printf.c      ****           while (l++ < width) {
 1677              		.loc 1 661 12 is_stmt 0 view .LVU509
 1678 028c 14F00204 		ands	r4, r4, #2
 1679              	.LVL198:
 661:printf.c      ****           while (l++ < width) {
 1680              		.loc 1 661 12 view .LVU510
 1681 0290 00F06884 		beq	.L354
 661:printf.c      ****           while (l++ < width) {
 1682              		.loc 1 661 21 view .LVU511
 1683 0294 0224     		movs	r4, #2
 1684              	.LVL199:
 1685              	.L355:
 661:printf.c      ****           while (l++ < width) {
 1686              		.loc 1 661 21 view .LVU512
 1687 0296 CDF848A0 		str	r10, [sp, #72]
 1688 029a 4E44     		add	r6, r6, r9
 1689 029c DDE9085A 		ldrd	r5, r10, [sp, #32]
 1690 02a0 4A46     		mov	r2, r9
 1691 02a2 CDF828C0 		str	ip, [sp, #40]
 1692 02a6 08E0     		b	.L363
 1693              	.L568:
 1694              		.align	2
 1695              	.L567:
 1696 02a8 00000000 		.word	_out_null
 1697              	.LVL200:
 1698              	.L539:
 668:printf.c      ****         }
 1699              		.loc 1 668 11 view .LVU513
 1700 02ac D847     		blx	fp
 1701              	.LVL201:
 667:printf.c      ****           out(*(p++), buffer, idx++, maxlen);
 1702              		.loc 1 667 17 view .LVU514
 1703 02ae 17F8010F 		ldrb	r0, [r7, #1]!	@ zero_extendqisi2
 668:printf.c      ****         }
 1704              		.loc 1 668 11 view .LVU515
 1705 02b2 09F10109 		add	r9, r9, #1
 1706              	.LVL202:
 667:printf.c      ****           out(*(p++), buffer, idx++, maxlen);
 1707              		.loc 1 667 26 is_stmt 1 view .LVU516
 668:printf.c      ****         }
 1708              		.loc 1 668 11 is_stmt 0 view .LVU517
 1709 02b6 4A46     		mov	r2, r9
 667:printf.c      ****           out(*(p++), buffer, idx++, maxlen);
 1710              		.loc 1 667 26 view .LVU518
 1711 02b8 18B1     		cbz	r0, .L515
 1712              	.LVL203:
 1713              	.L363:
 668:printf.c      ****         }
 1714              		.loc 1 668 11 is_stmt 1 view .LVU519
 667:printf.c      ****           out(*(p++), buffer, idx++, maxlen);
 1715              		.loc 1 667 57 is_stmt 0 discriminator 2 view .LVU520
 1716 02ba 4E45     		cmp	r6, r9
 668:printf.c      ****         }
 1717              		.loc 1 668 11 view .LVU521
 1718 02bc 5346     		mov	r3, r10
 1719 02be 2946     		mov	r1, r5
 667:printf.c      ****           out(*(p++), buffer, idx++, maxlen);
 1720              		.loc 1 667 57 discriminator 2 view .LVU522
 1721 02c0 F4D1     		bne	.L539
 1722              	.LVL204:
 1723              	.L515:
 667:printf.c      ****           out(*(p++), buffer, idx++, maxlen);
 1724              		.loc 1 667 57 discriminator 2 view .LVU523
 1725 02c2 DDF828C0 		ldr	ip, [sp, #40]
 1726 02c6 DDF848A0 		ldr	r10, [sp, #72]
 1727              	.LVL205:
 1728              	.L361:
 671:printf.c      ****           while (l++ < width) {
 1729              		.loc 1 671 9 is_stmt 1 view .LVU524
 671:printf.c      ****           while (l++ < width) {
 1730              		.loc 1 671 12 is_stmt 0 view .LVU525
 1731 02ca 002C     		cmp	r4, #0
 1732 02cc 40F02582 		bne	.L525
 1733              	.LVL206:
 1734              	.L358:
 676:printf.c      ****         break;
 1735              		.loc 1 676 9 is_stmt 1 view .LVU526
 677:printf.c      ****       }
 1736              		.loc 1 677 9 view .LVU527
 655:printf.c      ****         unsigned int l = _strnlen_s(p, precision ? precision : (size_t)-1);
 1737              		.loc 1 655 21 is_stmt 0 view .LVU528
 1738 02d0 CDF828C0 		str	ip, [sp, #40]
 677:printf.c      ****       }
 1739              		.loc 1 677 9 view .LVU529
 1740 02d4 B1E6     		b	.L204
 1741              	.LVL207:
 1742              	.L224:
 677:printf.c      ****       }
 1743              		.loc 1 677 9 view .LVU530
 1744              	.LBE192:
 519:printf.c      ****         format++;
 1745              		.loc 1 519 9 is_stmt 1 view .LVU531
 520:printf.c      ****         if (*format == 'l') {
 1746              		.loc 1 520 9 view .LVU532
 521:printf.c      ****           flags |= FLAGS_LONG_LONG;
 1747              		.loc 1 521 9 view .LVU533
 521:printf.c      ****           flags |= FLAGS_LONG_LONG;
 1748              		.loc 1 521 13 is_stmt 0 view .LVU534
 1749 02d6 98F80100 		ldrb	r0, [r8, #1]	@ zero_extendqisi2
 521:printf.c      ****           flags |= FLAGS_LONG_LONG;
 1750              		.loc 1 521 12 view .LVU535
 1751 02da 6C28     		cmp	r0, #108
 1752 02dc 7FF406AF 		bne	.L520
 522:printf.c      ****           format++;
 1753              		.loc 1 522 11 is_stmt 1 view .LVU536
 553:printf.c      ****       case 'd' :
 1754              		.loc 1 553 13 is_stmt 0 view .LVU537
 1755 02e0 98F80200 		ldrb	r0, [r8, #2]	@ zero_extendqisi2
 522:printf.c      ****           format++;
 1756              		.loc 1 522 17 view .LVU538
 1757 02e4 44F44074 		orr	r4, r4, #768
 1758              	.LVL208:
 523:printf.c      ****         }
 1759              		.loc 1 523 11 is_stmt 1 view .LVU539
 523:printf.c      ****         }
 1760              		.loc 1 523 11 is_stmt 0 view .LVU540
 1761 02e8 08F10303 		add	r3, r8, #3
 1762 02ec 01E7     		b	.L221
 1763              	.LVL209:
 1764              	.L225:
 541:printf.c      ****         format++;
 1765              		.loc 1 541 9 is_stmt 1 view .LVU541
 521:printf.c      ****           flags |= FLAGS_LONG_LONG;
 1766              		.loc 1 521 13 is_stmt 0 view .LVU542
 1767 02ee 98F80100 		ldrb	r0, [r8, #1]	@ zero_extendqisi2
 541:printf.c      ****         format++;
 1768              		.loc 1 541 15 view .LVU543
 1769 02f2 44F40074 		orr	r4, r4, #512
 1770              	.LVL210:
 542:printf.c      ****         break;
 1771              		.loc 1 542 9 is_stmt 1 view .LVU544
 543:printf.c      ****       case 'z' :
 1772              		.loc 1 543 9 view .LVU545
 543:printf.c      ****       case 'z' :
 1773              		.loc 1 543 9 is_stmt 0 view .LVU546
 1774 02f6 0133     		adds	r3, r3, #1
 1775              	.LVL211:
 543:printf.c      ****       case 'z' :
 1776              		.loc 1 543 9 view .LVU547
 1777 02f8 FBE6     		b	.L221
 1778              	.LVL212:
 1779              	.L226:
 527:printf.c      ****         format++;
 1780              		.loc 1 527 9 is_stmt 1 view .LVU548
 528:printf.c      ****         if (*format == 'h') {
 1781              		.loc 1 528 9 view .LVU549
 529:printf.c      ****           flags |= FLAGS_CHAR;
 1782              		.loc 1 529 9 view .LVU550
 529:printf.c      ****           flags |= FLAGS_CHAR;
 1783              		.loc 1 529 13 is_stmt 0 view .LVU551
 1784 02fa 98F80100 		ldrb	r0, [r8, #1]	@ zero_extendqisi2
 529:printf.c      ****           flags |= FLAGS_CHAR;
 1785              		.loc 1 529 12 view .LVU552
 1786 02fe 6828     		cmp	r0, #104
 1787 0300 00F0AA81 		beq	.L228
 527:printf.c      ****         format++;
 1788              		.loc 1 527 15 view .LVU553
 1789 0304 44F08004 		orr	r4, r4, #128
 1790              	.LVL213:
 527:printf.c      ****         format++;
 1791              		.loc 1 527 15 view .LVU554
 1792 0308 0133     		adds	r3, r3, #1
 1793              	.LVL214:
 527:printf.c      ****         format++;
 1794              		.loc 1 527 15 view .LVU555
 1795 030a F2E6     		b	.L221
 1796              	.LVL215:
 1797              	.L236:
 630:printf.c      ****         format++;
 1798              		.loc 1 630 9 is_stmt 1 view .LVU556
 630:printf.c      ****         format++;
 1799              		.loc 1 630 15 is_stmt 0 view .LVU557
 1800 030c 0A9B     		ldr	r3, [sp, #40]
 1801 030e 0733     		adds	r3, r3, #7
 1802 0310 23F00703 		bic	r3, r3, #7
 1803              	.LVL216:
 630:printf.c      ****         format++;
 1804              		.loc 1 630 15 view .LVU558
 1805 0314 B3EC027B 		vldmia.64	r3!, {d7}
 1806              	.LVL217:
 1807              	.LBB201:
 1808              	.LBB202:
 314:printf.c      ****     out('n', buffer, idx++, maxlen);
 1809              		.loc 1 314 6 view .LVU559
 1810 0318 51EC170B 		vmov	r0, r1, d7
 1811              	.LBE202:
 1812              	.LBE201:
 630:printf.c      ****         format++;
 1813              		.loc 1 630 15 view .LVU560
 1814 031c 0A93     		str	r3, [sp, #40]
 1815              	.LVL218:
 1816              	.LBB226:
 1817              	.LBI201:
 299:printf.c      **** {
 1818              		.loc 1 299 15 is_stmt 1 view .LVU561
 1819              	.LBB210:
 301:printf.c      **** 
 1820              		.loc 1 301 3 view .LVU562
 303:printf.c      ****   size_t len  = 0U;
 1821              		.loc 1 303 3 view .LVU563
 304:printf.c      ****   double diff = 0.0;
 1822              		.loc 1 304 3 view .LVU564
 305:printf.c      **** 
 1823              		.loc 1 305 3 view .LVU565
 308:printf.c      **** 
 1824              		.loc 1 308 3 view .LVU566
 311:printf.c      **** 
 1825              		.loc 1 311 3 view .LVU567
 314:printf.c      ****     out('n', buffer, idx++, maxlen);
 1826              		.loc 1 314 3 view .LVU568
 314:printf.c      ****     out('n', buffer, idx++, maxlen);
 1827              		.loc 1 314 6 is_stmt 0 view .LVU569
 1828 031e 0246     		mov	r2, r0
 1829 0320 0B46     		mov	r3, r1
 1830              	.LVL219:
 314:printf.c      ****     out('n', buffer, idx++, maxlen);
 1831              		.loc 1 314 6 view .LVU570
 1832              	.LBE210:
 1833              	.LBE226:
 630:printf.c      ****         format++;
 1834              		.loc 1 630 15 view .LVU571
 1835 0322 8DED0C7B 		vstr.64	d7, [sp, #48]
 1836              	.LBB227:
 1837              	.LBB211:
 314:printf.c      ****     out('n', buffer, idx++, maxlen);
 1838              		.loc 1 314 6 view .LVU572
 1839 0326 FFF7FEFF 		bl	__aeabi_dcmpeq
 1840              	.LVL220:
 1841 032a 0028     		cmp	r0, #0
 1842 032c 00F0B281 		beq	.L540
 322:printf.c      ****   if (value < 0) {
 1843              		.loc 1 322 3 is_stmt 1 view .LVU573
 1844              	.LVL221:
 323:printf.c      ****     negative = true;
 1845              		.loc 1 323 3 view .LVU574
 323:printf.c      ****     negative = true;
 1846              		.loc 1 323 6 is_stmt 0 view .LVU575
 1847 0330 DDE90C01 		ldrd	r0, [sp, #48]
 1848 0334 0022     		movs	r2, #0
 1849 0336 0023     		movs	r3, #0
 1850 0338 FFF7FEFF 		bl	__aeabi_dcmplt
 1851              	.LVL222:
 1852 033c 0028     		cmp	r0, #0
 1853 033e 40F06381 		bne	.L541
 322:printf.c      ****   if (value < 0) {
 1854              		.loc 1 322 8 view .LVU576
 1855 0342 1390     		str	r0, [sp, #76]
 1856              	.LVL223:
 1857              	.L294:
 329:printf.c      ****     prec = 6U;
 1858              		.loc 1 329 3 is_stmt 1 view .LVU577
 330:printf.c      ****   }
 1859              		.loc 1 330 10 is_stmt 0 view .LVU578
 1860 0344 14F4806F 		tst	r4, #1024
 1861 0348 14AB     		add	r3, sp, #80
 1862 034a 08BF     		it	eq
 1863 034c 0626     		moveq	r6, #6
 333:printf.c      ****     buf[len++] = '0';
 1864              		.loc 1 333 42 is_stmt 1 view .LVU579
 1865 034e 1293     		str	r3, [sp, #72]
 1866 0350 1A46     		mov	r2, r3
 1867 0352 A6F1200A 		sub	r10, r6, #32
 330:printf.c      ****   }
 1868              		.loc 1 330 10 is_stmt 0 view .LVU580
 1869 0356 3346     		mov	r3, r6
 334:printf.c      ****     prec--;
 1870              		.loc 1 334 16 view .LVU581
 1871 0358 3021     		movs	r1, #48
 1872 035a 05E0     		b	.L298
 1873              	.LVL224:
 1874              	.L300:
 335:printf.c      ****   }
 1875              		.loc 1 335 9 view .LVU582
 1876 035c 013B     		subs	r3, r3, #1
 1877              	.LVL225:
 333:printf.c      ****     buf[len++] = '0';
 1878              		.loc 1 333 42 view .LVU583
 1879 035e 5345     		cmp	r3, r10
 334:printf.c      ****     prec--;
 1880              		.loc 1 334 16 view .LVU584
 1881 0360 02F8011B 		strb	r1, [r2], #1
 335:printf.c      ****   }
 1882              		.loc 1 335 5 is_stmt 1 view .LVU585
 1883              	.LVL226:
 333:printf.c      ****     buf[len++] = '0';
 1884              		.loc 1 333 42 view .LVU586
 1885 0364 00F0EE81 		beq	.L542
 1886              	.LVL227:
 1887              	.L298:
 334:printf.c      ****     prec--;
 1888              		.loc 1 334 5 view .LVU587
 333:printf.c      ****     buf[len++] = '0';
 1889              		.loc 1 333 42 is_stmt 0 discriminator 1 view .LVU588
 1890 0368 092B     		cmp	r3, #9
 1891 036a F7D8     		bhi	.L300
 1892 036c F61A     		subs	r6, r6, r3
 1893 036e 9A46     		mov	r10, r3
 1894              	.LVL228:
 1895              	.L299:
 338:printf.c      ****   double tmp = (value - whole) * pow10[prec];
 1896              		.loc 1 338 3 is_stmt 1 view .LVU589
 338:printf.c      ****   double tmp = (value - whole) * pow10[prec];
 1897              		.loc 1 338 7 is_stmt 0 view .LVU590
 1898 0370 DDE90C01 		ldrd	r0, [sp, #48]
 1899 0374 FFF7FEFF 		bl	__aeabi_d2iz
 1900              	.LVL229:
 339:printf.c      ****   unsigned long frac = (unsigned long)tmp;
 1901              		.loc 1 339 39 view .LVU591
 1902 0378 BF4B     		ldr	r3, .L569+8
 1903 037a 03EBCA03 		add	r3, r3, r10, lsl #3
 1904 037e 93ED007B 		vldr.64	d7, [r3]
 338:printf.c      ****   double tmp = (value - whole) * pow10[prec];
 1905              		.loc 1 338 7 view .LVU592
 1906 0382 0746     		mov	r7, r0
 1907              	.LVL230:
 339:printf.c      ****   unsigned long frac = (unsigned long)tmp;
 1908              		.loc 1 339 3 is_stmt 1 view .LVU593
 339:printf.c      ****   unsigned long frac = (unsigned long)tmp;
 1909              		.loc 1 339 39 is_stmt 0 view .LVU594
 1910 0384 8DED0E7B 		vstr.64	d7, [sp, #56]
 339:printf.c      ****   unsigned long frac = (unsigned long)tmp;
 1911              		.loc 1 339 23 view .LVU595
 1912 0388 FFF7FEFF 		bl	__aeabi_i2d
 1913              	.LVL231:
 339:printf.c      ****   unsigned long frac = (unsigned long)tmp;
 1914              		.loc 1 339 23 view .LVU596
 1915 038c 0246     		mov	r2, r0
 1916 038e 0B46     		mov	r3, r1
 1917 0390 DDE90C01 		ldrd	r0, [sp, #48]
 1918 0394 FFF7FEFF 		bl	__aeabi_dsub
 1919              	.LVL232:
 339:printf.c      ****   unsigned long frac = (unsigned long)tmp;
 1920              		.loc 1 339 10 view .LVU597
 1921 0398 DDE90E23 		ldrd	r2, [sp, #56]
 1922 039c FFF7FEFF 		bl	__aeabi_dmul
 1923              	.LVL233:
 340:printf.c      ****   diff = tmp - frac;
 1924              		.loc 1 340 3 is_stmt 1 view .LVU598
 339:printf.c      ****   unsigned long frac = (unsigned long)tmp;
 1925              		.loc 1 339 10 is_stmt 0 view .LVU599
 1926 03a0 0246     		mov	r2, r0
 1927 03a2 0B46     		mov	r3, r1
 1928 03a4 CDE91023 		strd	r2, [sp, #64]
 1929              	.LVL234:
 340:printf.c      ****   diff = tmp - frac;
 1930              		.loc 1 340 17 view .LVU600
 1931 03a8 FFF7FEFF 		bl	__aeabi_d2uiz
 1932              	.LVL235:
 1933 03ac 0546     		mov	r5, r0
 1934              	.LVL236:
 341:printf.c      **** 
 1935              		.loc 1 341 3 is_stmt 1 view .LVU601
 341:printf.c      **** 
 1936              		.loc 1 341 14 is_stmt 0 view .LVU602
 1937 03ae FFF7FEFF 		bl	__aeabi_ui2d
 1938              	.LVL237:
 341:printf.c      **** 
 1939              		.loc 1 341 14 view .LVU603
 1940 03b2 0246     		mov	r2, r0
 1941 03b4 0B46     		mov	r3, r1
 341:printf.c      **** 
 1942              		.loc 1 341 8 view .LVU604
 1943 03b6 DDE91001 		ldrd	r0, [sp, #64]
 1944 03ba FFF7FEFF 		bl	__aeabi_dsub
 1945              	.LVL238:
 1946 03be 0246     		mov	r2, r0
 1947 03c0 0B46     		mov	r3, r1
 1948 03c2 CDE91023 		strd	r2, [sp, #64]
 1949              	.LVL239:
 343:printf.c      ****     ++frac;
 1950              		.loc 1 343 3 is_stmt 1 view .LVU605
 343:printf.c      ****     ++frac;
 1951              		.loc 1 343 6 is_stmt 0 view .LVU606
 1952 03c6 AD4B     		ldr	r3, .L569+12
 1953 03c8 0022     		movs	r2, #0
 1954              	.LVL240:
 343:printf.c      ****     ++frac;
 1955              		.loc 1 343 6 view .LVU607
 1956 03ca FFF7FEFF 		bl	__aeabi_dcmpgt
 1957              	.LVL241:
 1958 03ce 0028     		cmp	r0, #0
 1959 03d0 00F07781 		beq	.L496
 344:printf.c      ****     // handle rollover, e.g. case 0.99 with prec 1 is 1.0
 1960              		.loc 1 344 5 is_stmt 1 view .LVU608
 1961 03d4 2B46     		mov	r3, r5
 1962 03d6 0133     		adds	r3, r3, #1
 346:printf.c      ****       frac = 0;
 1963              		.loc 1 346 14 is_stmt 0 view .LVU609
 1964 03d8 1846     		mov	r0, r3
 344:printf.c      ****     // handle rollover, e.g. case 0.99 with prec 1 is 1.0
 1965              		.loc 1 344 5 view .LVU610
 1966 03da 1D46     		mov	r5, r3
 1967              	.LVL242:
 346:printf.c      ****       frac = 0;
 1968              		.loc 1 346 5 is_stmt 1 view .LVU611
 346:printf.c      ****       frac = 0;
 1969              		.loc 1 346 14 is_stmt 0 view .LVU612
 1970 03dc FFF7FEFF 		bl	__aeabi_ui2d
 1971              	.LVL243:
 346:printf.c      ****       frac = 0;
 1972              		.loc 1 346 14 view .LVU613
 1973 03e0 0246     		mov	r2, r0
 1974 03e2 0B46     		mov	r3, r1
 346:printf.c      ****       frac = 0;
 1975              		.loc 1 346 8 view .LVU614
 1976 03e4 DDE90E01 		ldrd	r0, [sp, #56]
 1977 03e8 FFF7FEFF 		bl	__aeabi_dcmple
 1978              	.LVL244:
 1979 03ec 10B1     		cbz	r0, .L303
 347:printf.c      ****       ++whole;
 1980              		.loc 1 347 7 is_stmt 1 view .LVU615
 1981              	.LVL245:
 348:printf.c      ****     }
 1982              		.loc 1 348 7 view .LVU616
 347:printf.c      ****       ++whole;
 1983              		.loc 1 347 12 is_stmt 0 view .LVU617
 1984 03ee 0023     		movs	r3, #0
 348:printf.c      ****     }
 1985              		.loc 1 348 7 view .LVU618
 1986 03f0 0137     		adds	r7, r7, #1
 1987              	.LVL246:
 347:printf.c      ****       ++whole;
 1988              		.loc 1 347 12 view .LVU619
 1989 03f2 1D46     		mov	r5, r3
 1990              	.LVL247:
 1991              	.L303:
 360:printf.c      ****     return 0U;
 1992              		.loc 1 360 3 is_stmt 1 view .LVU620
 360:printf.c      ****     return 0U;
 1993              		.loc 1 360 6 is_stmt 0 view .LVU621
 1994 03f4 9EA3     		adr	r3, .L569
 1995 03f6 D3E90023 		ldrd	r2, [r3]
 1996 03fa DDE90C01 		ldrd	r0, [sp, #48]
 1997 03fe FFF7FEFF 		bl	__aeabi_dcmpgt
 1998              	.LVL248:
 1999 0402 0028     		cmp	r0, #0
 2000 0404 40F0F181 		bne	.L405
 364:printf.c      ****     diff = value - (double)whole;
 2001              		.loc 1 364 3 is_stmt 1 view .LVU622
 364:printf.c      ****     diff = value - (double)whole;
 2002              		.loc 1 364 6 is_stmt 0 view .LVU623
 2003 0408 BAF1000F 		cmp	r10, #0
 2004 040c 00F0F381 		beq	.L306
 2005 0410 129B     		ldr	r3, [sp, #72]
 2006              	.LBB203:
 377:printf.c      ****       if (!(frac /= 10U)) {
 2007              		.loc 1 377 39 view .LVU624
 2008 0412 DFF870C2 		ldr	ip, .L569+20
 2009 0416 701E     		subs	r0, r6, #1
 2010 0418 1844     		add	r0, r0, r3
 2011 041a 0EE0     		b	.L307
 2012              	.LVL249:
 2013              	.L310:
 377:printf.c      ****       if (!(frac /= 10U)) {
 2014              		.loc 1 377 39 view .LVU625
 2015 041c ACFB0521 		umull	r2, r1, ip, r5
 2016 0420 C908     		lsrs	r1, r1, #3
 2017 0422 01EB8102 		add	r2, r1, r1, lsl #2
 2018 0426 A5EB4202 		sub	r2, r5, r2, lsl #1
 377:printf.c      ****       if (!(frac /= 10U)) {
 2019              		.loc 1 377 20 view .LVU626
 2020 042a 3032     		adds	r2, r2, #48
 378:printf.c      ****         break;
 2021              		.loc 1 378 10 view .LVU627
 2022 042c 092D     		cmp	r5, #9
 377:printf.c      ****       if (!(frac /= 10U)) {
 2023              		.loc 1 377 18 view .LVU628
 2024 042e 00F8012F 		strb	r2, [r0, #1]!
 378:printf.c      ****         break;
 2025              		.loc 1 378 7 is_stmt 1 view .LVU629
 2026              	.LVL250:
 378:printf.c      ****         break;
 2027              		.loc 1 378 10 is_stmt 0 view .LVU630
 2028 0432 40F24D82 		bls	.L309
 378:printf.c      ****         break;
 2029              		.loc 1 378 18 view .LVU631
 2030 0436 0D46     		mov	r5, r1
 377:printf.c      ****       if (!(frac /= 10U)) {
 2031              		.loc 1 377 14 view .LVU632
 2032 0438 1E46     		mov	r6, r3
 2033              	.LVL251:
 2034              	.L307:
 376:printf.c      ****       buf[len++] = (char)(48U + (frac % 10U));
 2035              		.loc 1 376 7 is_stmt 1 view .LVU633
 375:printf.c      ****       --count;
 2036              		.loc 1 375 16 view .LVU634
 2037 043a 202E     		cmp	r6, #32
 377:printf.c      ****       if (!(frac /= 10U)) {
 2038              		.loc 1 377 14 is_stmt 0 view .LVU635
 2039 043c 06F10103 		add	r3, r6, #1
 376:printf.c      ****       buf[len++] = (char)(48U + (frac % 10U));
 2040              		.loc 1 376 7 view .LVU636
 2041 0440 0AF1FF3A 		add	r10, r10, #-1
 2042              	.LVL252:
 377:printf.c      ****       if (!(frac /= 10U)) {
 2043              		.loc 1 377 7 is_stmt 1 view .LVU637
 375:printf.c      ****       --count;
 2044              		.loc 1 375 16 is_stmt 0 view .LVU638
 2045 0444 EAD1     		bne	.L310
 2046              	.LVL253:
 2047              	.L311:
 377:printf.c      ****       if (!(frac /= 10U)) {
 2048              		.loc 1 377 14 view .LVU639
 2049 0446 2026     		movs	r6, #32
 2050              	.LVL254:
 2051              	.L308:
 377:printf.c      ****       if (!(frac /= 10U)) {
 2052              		.loc 1 377 14 view .LVU640
 2053 0448 129B     		ldr	r3, [sp, #72]
 2054              	.LBE203:
 394:printf.c      ****     if (!(whole /= 10)) {
 2055              		.loc 1 394 37 view .LVU641
 2056 044a 8D48     		ldr	r0, .L569+16
 2057 044c 711E     		subs	r1, r6, #1
 2058 044e 1944     		add	r1, r1, r3
 2059 0450 07E0     		b	.L316
 2060              	.LVL255:
 2061              	.L317:
 394:printf.c      ****     if (!(whole /= 10)) {
 2062              		.loc 1 394 16 view .LVU642
 2063 0452 01F8017F 		strb	r7, [r1, #1]!
 394:printf.c      ****     if (!(whole /= 10)) {
 2064              		.loc 1 394 12 view .LVU643
 2065 0456 731C     		adds	r3, r6, #1
 2066              	.LVL256:
 395:printf.c      ****       break;
 2067              		.loc 1 395 5 is_stmt 1 view .LVU644
 395:printf.c      ****       break;
 2068              		.loc 1 395 8 is_stmt 0 view .LVU645
 2069 0458 1746     		mov	r7, r2
 2070 045a 002A     		cmp	r2, #0
 2071 045c 00F0DF81 		beq	.L315
 394:printf.c      ****     if (!(whole /= 10)) {
 2072              		.loc 1 394 12 view .LVU646
 2073 0460 1E46     		mov	r6, r3
 2074              	.LVL257:
 2075              	.L316:
 394:printf.c      ****     if (!(whole /= 10)) {
 2076              		.loc 1 394 5 is_stmt 1 view .LVU647
 393:printf.c      ****     buf[len++] = (char)(48 + (whole % 10));
 2077              		.loc 1 393 14 view .LVU648
 394:printf.c      ****     if (!(whole /= 10)) {
 2078              		.loc 1 394 37 is_stmt 0 view .LVU649
 2079 0462 80FB0723 		smull	r2, r3, r0, r7
 2080 0466 FA17     		asrs	r2, r7, #31
 2081 0468 C2EBA302 		rsb	r2, r2, r3, asr #2
 2082 046c 02EB8203 		add	r3, r2, r2, lsl #2
 2083 0470 A7EB4307 		sub	r7, r7, r3, lsl #1
 2084              	.LVL258:
 393:printf.c      ****     buf[len++] = (char)(48 + (whole % 10));
 2085              		.loc 1 393 14 view .LVU650
 2086 0474 202E     		cmp	r6, #32
 394:printf.c      ****     if (!(whole /= 10)) {
 2087              		.loc 1 394 18 view .LVU651
 2088 0476 07F13007 		add	r7, r7, #48
 393:printf.c      ****     buf[len++] = (char)(48 + (whole % 10));
 2089              		.loc 1 393 14 view .LVU652
 2090 047a EAD1     		bne	.L317
 2091              	.LVL259:
 401:printf.c      ****     if (width && (negative || (flags & (FLAGS_PLUS | FLAGS_SPACE)))) {
 2092              		.loc 1 401 3 is_stmt 1 view .LVU653
 401:printf.c      ****     if (width && (negative || (flags & (FLAGS_PLUS | FLAGS_SPACE)))) {
 2093              		.loc 1 401 29 is_stmt 0 view .LVU654
 2094 047c 04F00302 		and	r2, r4, #3
 401:printf.c      ****     if (width && (negative || (flags & (FLAGS_PLUS | FLAGS_SPACE)))) {
 2095              		.loc 1 401 6 view .LVU655
 2096 0480 012A     		cmp	r2, #1
 2097 0482 40F01384 		bne	.L425
 402:printf.c      ****       width--;
 2098              		.loc 1 402 5 is_stmt 1 view .LVU656
 402:printf.c      ****       width--;
 2099              		.loc 1 402 8 is_stmt 0 view .LVU657
 2100 0486 0B9B     		ldr	r3, [sp, #44]
 2101 0488 002B     		cmp	r3, #0
 2102 048a 00F0BF82 		beq	.L426
 402:printf.c      ****       width--;
 2103              		.loc 1 402 15 discriminator 1 view .LVU658
 2104 048e 139A     		ldr	r2, [sp, #76]
 2105 0490 002A     		cmp	r2, #0
 2106 0492 00F02384 		beq	.L321
 403:printf.c      ****     }
 2107              		.loc 1 403 7 is_stmt 1 view .LVU659
 403:printf.c      ****     }
 2108              		.loc 1 403 12 is_stmt 0 view .LVU660
 2109 0496 013B     		subs	r3, r3, #1
 405:printf.c      ****       buf[len++] = '0';
 2110              		.loc 1 405 26 view .LVU661
 2111 0498 202B     		cmp	r3, #32
 403:printf.c      ****     }
 2112              		.loc 1 403 12 view .LVU662
 2113 049a 0B93     		str	r3, [sp, #44]
 2114              	.LVL260:
 405:printf.c      ****       buf[len++] = '0';
 2115              		.loc 1 405 26 is_stmt 1 view .LVU663
 2116 049c 40F2B682 		bls	.L426
 2117              	.LVL261:
 2118              	.L322:
 405:printf.c      ****       buf[len++] = '0';
 2119              		.loc 1 405 26 is_stmt 0 view .LVU664
 2120 04a0 129A     		ldr	r2, [sp, #72]
 406:printf.c      ****     }
 2121              		.loc 1 406 18 view .LVU665
 2122 04a2 0B99     		ldr	r1, [sp, #44]
 2123 04a4 731E     		subs	r3, r6, #1
 2124 04a6 1344     		add	r3, r3, r2
 2125 04a8 3022     		movs	r2, #48
 2126 04aa 05E0     		b	.L327
 2127              	.LVL262:
 2128              	.L330:
 406:printf.c      ****     }
 2129              		.loc 1 406 14 view .LVU666
 2130 04ac 0136     		adds	r6, r6, #1
 2131              	.LVL263:
 405:printf.c      ****       buf[len++] = '0';
 2132              		.loc 1 405 26 view .LVU667
 2133 04ae 8E42     		cmp	r6, r1
 406:printf.c      ****     }
 2134              		.loc 1 406 18 view .LVU668
 2135 04b0 03F8012F 		strb	r2, [r3, #1]!
 2136              	.LVL264:
 405:printf.c      ****       buf[len++] = '0';
 2137              		.loc 1 405 26 is_stmt 1 view .LVU669
 2138 04b4 00F0AA83 		beq	.L543
 2139              	.LVL265:
 2140              	.L327:
 406:printf.c      ****     }
 2141              		.loc 1 406 7 view .LVU670
 405:printf.c      ****       buf[len++] = '0';
 2142              		.loc 1 405 26 is_stmt 0 discriminator 1 view .LVU671
 2143 04b8 202E     		cmp	r6, #32
 2144 04ba F7D1     		bne	.L330
 2145              	.L424:
 410:printf.c      ****     if (negative) {
 2146              		.loc 1 410 6 view .LVU672
 2147 04bc 1F23     		movs	r3, #31
 2148              	.L324:
 2149              	.LVL266:
 410:printf.c      ****     if (negative) {
 2150              		.loc 1 410 6 view .LVU673
 2151 04be CA46     		mov	r10, r9
 2152 04c0 DCE1     		b	.L323
 2153              	.LVL267:
 2154              	.L239:
 410:printf.c      ****     if (negative) {
 2155              		.loc 1 410 6 view .LVU674
 2156              	.LBE211:
 2157              	.LBE227:
 2158              	.LBB228:
 635:printf.c      ****         // pre padding
 2159              		.loc 1 635 9 is_stmt 1 view .LVU675
 637:printf.c      ****           while (l++ < width) {
 2160              		.loc 1 637 9 view .LVU676
 2161              	.LBE228:
 2162              	.LBB229:
 2163              	.LBB97:
 601:printf.c      ****             idx = _ntoa_long(out, buffer, idx, maxlen, (unsigned long)(value > 0 ? value : 0 - valu
 2164              		.loc 1 601 24 is_stmt 0 view .LVU677
 2165 04c2 0A9B     		ldr	r3, [sp, #40]
 2166              	.LBE97:
 2167              	.LBE229:
 2168              	.LBB230:
 637:printf.c      ****           while (l++ < width) {
 2169              		.loc 1 637 12 view .LVU678
 2170 04c4 A207     		lsls	r2, r4, #30
 2171              	.LBE230:
 462:printf.c      ****       format++;
 2172              		.loc 1 462 7 view .LVU679
 2173 04c6 09F10106 		add	r6, r9, #1
 2174              	.LBB231:
 2175              	.LBB107:
 601:printf.c      ****             idx = _ntoa_long(out, buffer, idx, maxlen, (unsigned long)(value > 0 ? value : 0 - valu
 2176              		.loc 1 601 24 view .LVU680
 2177 04ca 03F10407 		add	r7, r3, #4
 2178              	.LBE107:
 2179              	.LBE231:
 2180              	.LBB232:
 637:printf.c      ****           while (l++ < width) {
 2181              		.loc 1 637 12 view .LVU681
 2182 04ce 40F10881 		bpl	.L544
 643:printf.c      ****         // post padding
 2183              		.loc 1 643 9 is_stmt 1 view .LVU682
 2184              	.LVL268:
 643:printf.c      ****         // post padding
 2185              		.loc 1 643 9 is_stmt 0 discriminator 1 view .LVU683
 2186 04d2 1878     		ldrb	r0, [r3]	@ zero_extendqisi2
 2187 04d4 0899     		ldr	r1, [sp, #32]
 2188 04d6 099B     		ldr	r3, [sp, #36]
 2189 04d8 4A46     		mov	r2, r9
 2190 04da D847     		blx	fp
 2191              	.LVL269:
 645:printf.c      ****           while (l++ < width) {
 2192              		.loc 1 645 9 is_stmt 1 view .LVU684
 646:printf.c      ****             out(' ', buffer, idx++, maxlen);
 2193              		.loc 1 646 22 view .LVU685
 646:printf.c      ****             out(' ', buffer, idx++, maxlen);
 2194              		.loc 1 646 22 is_stmt 0 view .LVU686
 2195 04dc 0B9B     		ldr	r3, [sp, #44]
 2196 04de 012B     		cmp	r3, #1
 2197 04e0 40F29D82 		bls	.L376
 2198 04e4 DDE90845 		ldrd	r4, r5, [sp, #32]
 2199              	.LVL270:
 646:printf.c      ****             out(' ', buffer, idx++, maxlen);
 2200              		.loc 1 646 22 view .LVU687
 2201 04e8 9944     		add	r9, r9, r3
 2202              	.LVL271:
 2203              	.L343:
 647:printf.c      ****           }
 2204              		.loc 1 647 13 is_stmt 1 view .LVU688
 2205 04ea 3246     		mov	r2, r6
 2206 04ec 2B46     		mov	r3, r5
 2207 04ee 0136     		adds	r6, r6, #1
 2208              	.LVL272:
 647:printf.c      ****           }
 2209              		.loc 1 647 13 is_stmt 0 view .LVU689
 2210 04f0 2146     		mov	r1, r4
 2211 04f2 2020     		movs	r0, #32
 2212 04f4 D847     		blx	fp
 2213              	.LVL273:
 646:printf.c      ****             out(' ', buffer, idx++, maxlen);
 2214              		.loc 1 646 22 is_stmt 1 view .LVU690
 646:printf.c      ****             out(' ', buffer, idx++, maxlen);
 2215              		.loc 1 646 22 is_stmt 0 view .LVU691
 2216 04f6 4E45     		cmp	r6, r9
 2217 04f8 F7D1     		bne	.L343
 2218              	.LVL274:
 2219              	.L342:
 650:printf.c      ****         break;
 2220              		.loc 1 650 9 is_stmt 1 view .LVU692
 651:printf.c      ****       }
 2221              		.loc 1 651 9 view .LVU693
 643:printf.c      ****         // post padding
 2222              		.loc 1 643 19 is_stmt 0 view .LVU694
 2223 04fa 0A97     		str	r7, [sp, #40]
 651:printf.c      ****       }
 2224              		.loc 1 651 9 view .LVU695
 2225 04fc 9DE5     		b	.L204
 2226              	.LVL275:
 2227              	.L233:
 651:printf.c      ****       }
 2228              		.loc 1 651 9 view .LVU696
 2229              	.LBE232:
 2230              	.LBB233:
 562:printf.c      ****         if (*format == 'x' || *format == 'X') {
 2231              		.loc 1 562 9 is_stmt 1 view .LVU697
 563:printf.c      ****           base = 16U;
 2232              		.loc 1 563 9 view .LVU698
 2233 04fe 6F28     		cmp	r0, #111
 2234 0500 00F08D80 		beq	.L545
 2235 0504 40F22483 		bls	.L546
 2236 0508 7828     		cmp	r0, #120
 2237 050a 00F05D82 		beq	.L394
 573:printf.c      ****           flags &= ~FLAGS_HASH;   // no hash for dec format
 2238              		.loc 1 573 11 view .LVU699
 2239              	.LVL276:
 574:printf.c      ****         }
 2240              		.loc 1 574 11 view .LVU700
 574:printf.c      ****         }
 2241              		.loc 1 574 17 is_stmt 0 view .LVU701
 2242 050e 4FF00A0A 		mov	r10, #10
 2243 0512 24F01004 		bic	r4, r4, #16
 2244              	.LVL277:
 577:printf.c      ****           flags |= FLAGS_UPPERCASE;
 2245              		.loc 1 577 9 is_stmt 1 view .LVU702
 582:printf.c      ****           flags &= ~(FLAGS_PLUS | FLAGS_SPACE);
 2246              		.loc 1 582 9 view .LVU703
 574:printf.c      ****         }
 2247              		.loc 1 574 17 is_stmt 0 view .LVU704
 2248 0516 D446     		mov	ip, r10
 2249 0518 42E0     		b	.L241
 2250              	.LVL278:
 2251              	.L535:
 574:printf.c      ****         }
 2252              		.loc 1 574 17 view .LVU705
 2253              	.LBE233:
 2254              	.LBB234:
 2255              	.LBB235:
 165:printf.c      ****   while (_is_digit(**str)) {
 2256              		.loc 1 165 16 view .LVU706
 2257 051a 0026     		movs	r6, #0
 2258              	.LVL279:
 2259              	.L220:
 167:printf.c      ****   }
 2260              		.loc 1 167 5 is_stmt 1 view .LVU707
 167:printf.c      ****   }
 2261              		.loc 1 167 11 is_stmt 0 view .LVU708
 2262 051c 06EB8606 		add	r6, r6, r6, lsl #2
 167:printf.c      ****   }
 2263              		.loc 1 167 17 view .LVU709
 2264 0520 00EB4600 		add	r0, r0, r6, lsl #1
 2265              	.LVL280:
 167:printf.c      ****   }
 2266              		.loc 1 167 7 view .LVU710
 2267 0524 A0F13006 		sub	r6, r0, #48
 2268              	.LVL281:
 166:printf.c      ****     i = i * 10U + (unsigned int)(*((*str)++) - '0');
 2269              		.loc 1 166 10 is_stmt 1 view .LVU711
 2270 0528 12F8010F 		ldrb	r0, [r2, #1]!	@ zero_extendqisi2
 2271              	.LVL282:
 2272              	.LBB236:
 2273              	.LBI236:
 156:printf.c      **** {
 2274              		.loc 1 156 20 view .LVU712
 2275              	.LBB237:
 158:printf.c      **** }
 2276              		.loc 1 158 3 view .LVU713
 158:printf.c      **** }
 2277              		.loc 1 158 3 is_stmt 0 view .LVU714
 2278              	.LBE237:
 2279              	.LBE236:
 166:printf.c      ****     i = i * 10U + (unsigned int)(*((*str)++) - '0');
 2280              		.loc 1 166 10 discriminator 1 view .LVU715
 2281 052c A0F13003 		sub	r3, r0, #48
 2282 0530 092B     		cmp	r3, #9
 2283 0532 F3D9     		bls	.L220
 2284 0534 9046     		mov	r8, r2
 2285 0536 531C     		adds	r3, r2, #1
 2286 0538 A9E5     		b	.L218
 2287              	.LVL283:
 2288              	.L536:
 166:printf.c      ****     i = i * 10U + (unsigned int)(*((*str)++) - '0');
 2289              		.loc 1 166 10 discriminator 1 view .LVU716
 2290              	.LBE235:
 2291              	.LBE234:
 2292              	.LBB238:
 510:printf.c      ****         precision = prec > 0 ? (unsigned int)prec : 0U;
 2293              		.loc 1 510 9 is_stmt 1 view .LVU717
 510:printf.c      ****         precision = prec > 0 ? (unsigned int)prec : 0U;
 2294              		.loc 1 510 19 is_stmt 0 view .LVU718
 2295 053a 0A9B     		ldr	r3, [sp, #40]
 2296              	.LVL284:
 511:printf.c      ****         format++;
 2297              		.loc 1 511 9 is_stmt 1 view .LVU719
 2298              	.LBE238:
 517:printf.c      ****       case 'l' :
 2299              		.loc 1 517 13 is_stmt 0 view .LVU720
 2300 053c 98F80200 		ldrb	r0, [r8, #2]	@ zero_extendqisi2
 2301              	.LBB239:
 511:printf.c      ****         format++;
 2302              		.loc 1 511 51 view .LVU721
 2303 0540 53F8046B 		ldr	r6, [r3], #4
 2304              	.LVL285:
 510:printf.c      ****         precision = prec > 0 ? (unsigned int)prec : 0U;
 2305              		.loc 1 510 19 view .LVU722
 2306 0544 0A93     		str	r3, [sp, #40]
 512:printf.c      ****       }
 2307              		.loc 1 512 15 view .LVU723
 2308 0546 08F10208 		add	r8, r8, #2
 511:printf.c      ****         format++;
 2309              		.loc 1 511 51 view .LVU724
 2310 054a 26EAE676 		bic	r6, r6, r6, asr #31
 2311              	.LVL286:
 512:printf.c      ****       }
 2312              		.loc 1 512 9 is_stmt 1 view .LVU725
 512:printf.c      ****       }
 2313              		.loc 1 512 9 is_stmt 0 view .LVU726
 2314 054e 08F10103 		add	r3, r8, #1
 2315              	.LVL287:
 512:printf.c      ****       }
 2316              		.loc 1 512 9 view .LVU727
 2317 0552 9CE5     		b	.L218
 2318              	.LVL288:
 2319              	.L367:
 512:printf.c      ****       }
 2320              		.loc 1 512 9 view .LVU728
 2321              	.LBE239:
 2322              	.LBB240:
 2323              	.LBB182:
 2324              	.LBB179:
 256:printf.c      ****   }
 2325              		.loc 1 256 5 is_stmt 1 view .LVU729
 256:printf.c      ****   }
 2326              		.loc 1 256 11 is_stmt 0 view .LVU730
 2327 0554 24F01007 		bic	r7, r4, #16
 260:printf.c      ****     do {
 2328              		.loc 1 260 6 view .LVU731
 2329 0558 14F48063 		ands	r3, r4, #1024
 2330              	.LVL289:
 256:printf.c      ****   }
 2331              		.loc 1 256 11 view .LVU732
 2332 055c 47F02107 		orr	r7, r7, #33
 2333              	.LVL290:
 260:printf.c      ****     do {
 2334              		.loc 1 260 3 is_stmt 1 view .LVU733
 260:printf.c      ****     do {
 2335              		.loc 1 260 6 is_stmt 0 view .LVU734
 2336 0560 3FF426AE 		beq	.L368
 2337 0564 14AB     		add	r3, sp, #80
 2338 0566 1293     		str	r3, [sp, #72]
 2339              	.LVL291:
 2340              	.L369:
 268:printf.c      **** }
 2341              		.loc 1 268 3 is_stmt 1 view .LVU735
 268:printf.c      **** }
 2342              		.loc 1 268 10 is_stmt 0 view .LVU736
 2343 0568 129B     		ldr	r3, [sp, #72]
 2344 056a 0093     		str	r3, [sp]
 2345 056c 0823     		movs	r3, #8
 2346 056e 0593     		str	r3, [sp, #20]
 2347 0570 1020     		movs	r0, #16
 2348 0572 0023     		movs	r3, #0
 2349 0574 CDE90230 		strd	r3, r0, [sp, #8]
 2350 0578 0192     		str	r2, [sp, #4]
 2351 057a DDE90813 		ldrd	r1, r3, [sp, #32]
 2352 057e 4A46     		mov	r2, r9
 2353              	.LVL292:
 268:printf.c      **** }
 2354              		.loc 1 268 10 view .LVU737
 2355 0580 0697     		str	r7, [sp, #24]
 2356 0582 0496     		str	r6, [sp, #16]
 2357 0584 5846     		mov	r0, fp
 2358 0586 FFF7FEFF 		bl	_ntoa_format
 2359              	.LVL293:
 268:printf.c      **** }
 2360              		.loc 1 268 10 view .LVU738
 2361              	.LBE179:
 2362              	.LBE182:
 690:printf.c      **** #if defined(PRINTF_SUPPORT_LONG_LONG)
 2363              		.loc 1 690 81 view .LVU739
 2364 058a 0A95     		str	r5, [sp, #40]
 2365              	.LBB183:
 2366              	.LBB180:
 268:printf.c      **** }
 2367              		.loc 1 268 10 view .LVU740
 2368 058c 8146     		mov	r9, r0
 2369              	.LVL294:
 268:printf.c      **** }
 2370              		.loc 1 268 10 view .LVU741
 2371              	.LBE180:
 2372              	.LBE183:
 694:printf.c      ****         break;
 2373              		.loc 1 694 9 is_stmt 1 view .LVU742
 695:printf.c      ****       }
 2374              		.loc 1 695 9 view .LVU743
 2375 058e 54E5     		b	.L204
 2376              	.LVL295:
 2377              	.L238:
 695:printf.c      ****       }
 2378              		.loc 1 695 9 is_stmt 0 view .LVU744
 2379 0590 5828     		cmp	r0, #88
 2380 0592 79D0     		beq	.L243
 2381 0594 6228     		cmp	r0, #98
 2382 0596 40F0D780 		bne	.L547
 2383              	.LBE240:
 553:printf.c      ****       case 'd' :
 2384              		.loc 1 553 5 view .LVU745
 2385 059a 4FF0020A 		mov	r10, #2
 2386 059e D446     		mov	ip, r10
 2387              	.L241:
 2388              	.LVL296:
 2389              	.LBB241:
 583:printf.c      ****         }
 2390              		.loc 1 583 11 is_stmt 1 view .LVU746
 587:printf.c      ****           flags &= ~FLAGS_ZEROPAD;
 2391              		.loc 1 587 9 view .LVU747
 587:printf.c      ****           flags &= ~FLAGS_ZEROPAD;
 2392              		.loc 1 587 12 is_stmt 0 view .LVU748
 2393 05a0 14F48065 		ands	r5, r4, #1024
 2394 05a4 00F02481 		beq	.L248
 588:printf.c      ****         }
 2395              		.loc 1 588 11 is_stmt 1 view .LVU749
 588:printf.c      ****         }
 2396              		.loc 1 588 17 is_stmt 0 view .LVU750
 2397 05a8 24F00D03 		bic	r3, r4, #13
 2398              	.LVL297:
 592:printf.c      ****           // signed
 2399              		.loc 1 592 9 is_stmt 1 view .LVU751
 2400              	.L249:
 611:printf.c      **** #if defined(PRINTF_SUPPORT_LONG_LONG)
 2401              		.loc 1 611 11 view .LVU752
 611:printf.c      **** #if defined(PRINTF_SUPPORT_LONG_LONG)
 2402              		.loc 1 611 14 is_stmt 0 view .LVU753
 2403 05ac 13F40070 		ands	r0, r3, #512
 613:printf.c      **** #endif
 2404              		.loc 1 613 19 view .LVU754
 2405 05b0 0A9A     		ldr	r2, [sp, #40]
 611:printf.c      **** #if defined(PRINTF_SUPPORT_LONG_LONG)
 2406              		.loc 1 611 14 view .LVU755
 2407 05b2 40F03982 		bne	.L548
 616:printf.c      ****             idx = _ntoa_long(out, buffer, idx, maxlen, va_arg(va, unsigned long), false, base, prec
 2408              		.loc 1 616 16 is_stmt 1 view .LVU756
 616:printf.c      ****             idx = _ntoa_long(out, buffer, idx, maxlen, va_arg(va, unsigned long), false, base, prec
 2409              		.loc 1 616 19 is_stmt 0 view .LVU757
 2410 05b6 13F48071 		ands	r1, r3, #256
 2411              	.LBB108:
 601:printf.c      ****             idx = _ntoa_long(out, buffer, idx, maxlen, (unsigned long)(value > 0 ? value : 0 - valu
 2412              		.loc 1 601 24 view .LVU758
 2413 05ba 02F10404 		add	r4, r2, #4
 2414              	.LBE108:
 616:printf.c      ****             idx = _ntoa_long(out, buffer, idx, maxlen, va_arg(va, unsigned long), false, base, prec
 2415              		.loc 1 616 19 view .LVU759
 2416 05be 40F01683 		bne	.L549
 2417              	.LBB109:
 620:printf.c      ****             idx = _ntoa_long(out, buffer, idx, maxlen, value, false, base, precision, width, flags)
 2418              		.loc 1 620 13 is_stmt 1 view .LVU760
 620:printf.c      ****             idx = _ntoa_long(out, buffer, idx, maxlen, value, false, base, precision, width, flags)
 2419              		.loc 1 620 103 is_stmt 0 view .LVU761
 2420 05c2 5F06     		lsls	r7, r3, #25
 2421 05c4 40F11282 		bpl	.L283
 2422              	.LVL298:
 620:printf.c      ****             idx = _ntoa_long(out, buffer, idx, maxlen, value, false, base, precision, width, flags)
 2423              		.loc 1 620 103 view .LVU762
 2424 05c8 1278     		ldrb	r2, [r2]	@ zero_extendqisi2
 2425              	.LVL299:
 2426              	.L284:
 621:printf.c      ****           }
 2427              		.loc 1 621 13 is_stmt 1 view .LVU763
 2428              	.LBB110:
 2429              	.LBI110:
 249:printf.c      **** {
 2430              		.loc 1 249 15 view .LVU764
 2431              	.LBB111:
 251:printf.c      ****   size_t len = 0U;
 2432              		.loc 1 251 3 view .LVU765
 252:printf.c      **** 
 2433              		.loc 1 252 3 view .LVU766
 255:printf.c      ****     flags &= ~FLAGS_HASH;
 2434              		.loc 1 255 3 view .LVU767
 255:printf.c      ****     flags &= ~FLAGS_HASH;
 2435              		.loc 1 255 6 is_stmt 0 view .LVU768
 2436 05ca 002A     		cmp	r2, #0
 2437 05cc 40F04D82 		bne	.L286
 256:printf.c      ****   }
 2438              		.loc 1 256 5 is_stmt 1 view .LVU769
 256:printf.c      ****   }
 2439              		.loc 1 256 11 is_stmt 0 view .LVU770
 2440 05d0 23F01003 		bic	r3, r3, #16
 2441              	.LVL300:
 260:printf.c      ****     do {
 2442              		.loc 1 260 3 is_stmt 1 view .LVU771
 260:printf.c      ****     do {
 2443              		.loc 1 260 6 is_stmt 0 view .LVU772
 2444 05d4 002D     		cmp	r5, #0
 2445 05d6 00F04882 		beq	.L286
 252:printf.c      **** 
 2446              		.loc 1 252 10 view .LVU773
 2447 05da 1146     		mov	r1, r2
 2448 05dc 14AA     		add	r2, sp, #80
 2449              	.LVL301:
 252:printf.c      **** 
 2450              		.loc 1 252 10 view .LVU774
 2451 05de 1292     		str	r2, [sp, #72]
 2452              	.LVL302:
 2453              	.L287:
 268:printf.c      **** }
 2454              		.loc 1 268 3 is_stmt 1 view .LVU775
 268:printf.c      **** }
 2455              		.loc 1 268 10 is_stmt 0 view .LVU776
 2456 05e0 0693     		str	r3, [sp, #24]
 2457 05e2 0B9B     		ldr	r3, [sp, #44]
 2458 05e4 CDF80CC0 		str	ip, [sp, #12]
 2459 05e8 CDE90463 		strd	r6, r3, [sp, #16]
 2460 05ec 0191     		str	r1, [sp, #4]
 2461              	.LVL303:
 2462              	.L526:
 268:printf.c      **** }
 2463              		.loc 1 268 10 view .LVU777
 2464 05ee 129B     		ldr	r3, [sp, #72]
 2465 05f0 0093     		str	r3, [sp]
 2466 05f2 0023     		movs	r3, #0
 2467 05f4 4A46     		mov	r2, r9
 2468 05f6 0293     		str	r3, [sp, #8]
 2469 05f8 5846     		mov	r0, fp
 2470 05fa DDE90813 		ldrd	r1, r3, [sp, #32]
 2471 05fe FFF7FEFF 		bl	_ntoa_format
 2472              	.LVL304:
 268:printf.c      **** }
 2473              		.loc 1 268 10 view .LVU778
 2474 0602 0A94     		str	r4, [sp, #40]
 2475 0604 8146     		mov	r9, r0
 2476              	.LVL305:
 268:printf.c      **** }
 2477              		.loc 1 268 10 view .LVU779
 2478              	.LBE111:
 2479              	.LBE110:
 2480              	.LBE109:
 624:printf.c      ****         break;
 2481              		.loc 1 624 9 is_stmt 1 view .LVU780
 625:printf.c      ****       }
 2482              		.loc 1 625 9 view .LVU781
 2483 0606 18E5     		b	.L204
 2484              	.LVL306:
 2485              	.L541:
 625:printf.c      ****       }
 2486              		.loc 1 625 9 is_stmt 0 view .LVU782
 2487              	.LBE241:
 2488              	.LBB242:
 2489              	.LBB212:
 324:printf.c      ****     value = 0 - value;
 2490              		.loc 1 324 5 is_stmt 1 view .LVU783
 325:printf.c      ****   }
 2491              		.loc 1 325 5 view .LVU784
 325:printf.c      ****   }
 2492              		.loc 1 325 11 is_stmt 0 view .LVU785
 2493 0608 DDE90C23 		ldrd	r2, [sp, #48]
 2494 060c 0020     		movs	r0, #0
 2495 060e 0021     		movs	r1, #0
 2496 0610 FFF7FEFF 		bl	__aeabi_dsub
 2497              	.LVL307:
 324:printf.c      ****     value = 0 - value;
 2498              		.loc 1 324 14 view .LVU786
 2499 0614 0123     		movs	r3, #1
 325:printf.c      ****   }
 2500              		.loc 1 325 11 view .LVU787
 2501 0616 CDE90C01 		strd	r0, [sp, #48]
 2502              	.LVL308:
 324:printf.c      ****     value = 0 - value;
 2503              		.loc 1 324 14 view .LVU788
 2504 061a 1393     		str	r3, [sp, #76]
 2505 061c 92E6     		b	.L294
 2506              	.LVL309:
 2507              	.L545:
 324:printf.c      ****     value = 0 - value;
 2508              		.loc 1 324 14 view .LVU789
 2509              	.LBE212:
 2510              	.LBE242:
 553:printf.c      ****       case 'd' :
 2511              		.loc 1 553 5 view .LVU790
 2512 061e 4FF0080A 		mov	r10, #8
 2513 0622 D446     		mov	ip, r10
 2514 0624 BCE7     		b	.L241
 2515              	.LVL310:
 2516              	.L353:
 2517              	.LBB243:
 661:printf.c      ****           while (l++ < width) {
 2518              		.loc 1 661 9 is_stmt 1 view .LVU791
 661:printf.c      ****           while (l++ < width) {
 2519              		.loc 1 661 12 is_stmt 0 view .LVU792
 2520 0626 14F00204 		ands	r4, r4, #2
 2521              	.LVL311:
 661:printf.c      ****           while (l++ < width) {
 2522              		.loc 1 661 12 view .LVU793
 2523 062a 00F04382 		beq	.L384
 661:printf.c      ****           while (l++ < width) {
 2524              		.loc 1 661 21 view .LVU794
 2525 062e 0224     		movs	r4, #2
 2526              	.LVL312:
 2527              	.L362:
 661:printf.c      ****           while (l++ < width) {
 2528              		.loc 1 661 21 view .LVU795
 2529 0630 DDE90856 		ldrd	r5, r6, [sp, #32]
 2530 0634 CDF828C0 		str	ip, [sp, #40]
 2531              	.LVL313:
 2532              	.L365:
 668:printf.c      ****         }
 2533              		.loc 1 668 11 is_stmt 1 view .LVU796
 668:printf.c      ****         }
 2534              		.loc 1 668 11 is_stmt 0 view .LVU797
 2535 0638 4A46     		mov	r2, r9
 2536              	.LVL314:
 668:printf.c      ****         }
 2537              		.loc 1 668 11 view .LVU798
 2538 063a 3346     		mov	r3, r6
 2539 063c 2946     		mov	r1, r5
 2540 063e D847     		blx	fp
 2541              	.LVL315:
 667:printf.c      ****           out(*(p++), buffer, idx++, maxlen);
 2542              		.loc 1 667 17 view .LVU799
 2543 0640 17F8010F 		ldrb	r0, [r7, #1]!	@ zero_extendqisi2
 668:printf.c      ****         }
 2544              		.loc 1 668 11 view .LVU800
 2545 0644 09F10109 		add	r9, r9, #1
 2546              	.LVL316:
 667:printf.c      ****           out(*(p++), buffer, idx++, maxlen);
 2547              		.loc 1 667 26 is_stmt 1 view .LVU801
 2548 0648 0028     		cmp	r0, #0
 2549 064a F5D1     		bne	.L365
 2550 064c DDF828C0 		ldr	ip, [sp, #40]
 2551 0650 3BE6     		b	.L361
 2552              	.LVL317:
 2553              	.L538:
 2554              	.LBB199:
 2555              	.LBB196:
 150:printf.c      **** }
 2556              		.loc 1 150 27 is_stmt 0 view .LVU802
 2557 0652 A3EB070A 		sub	r10, r3, r7
 2558 0656 13E6     		b	.L347
 2559              	.LVL318:
 2560              	.L228:
 150:printf.c      **** }
 2561              		.loc 1 150 27 view .LVU803
 2562              	.LBE196:
 2563              	.LBE199:
 2564              	.LBE243:
 530:printf.c      ****           format++;
 2565              		.loc 1 530 11 is_stmt 1 view .LVU804
 553:printf.c      ****       case 'd' :
 2566              		.loc 1 553 13 is_stmt 0 view .LVU805
 2567 0658 98F80200 		ldrb	r0, [r8, #2]	@ zero_extendqisi2
 530:printf.c      ****           format++;
 2568              		.loc 1 530 17 view .LVU806
 2569 065c 44F0C004 		orr	r4, r4, #192
 2570              	.LVL319:
 531:printf.c      ****         }
 2571              		.loc 1 531 11 is_stmt 1 view .LVU807
 531:printf.c      ****         }
 2572              		.loc 1 531 11 is_stmt 0 view .LVU808
 2573 0660 08F10303 		add	r3, r8, #3
 2574 0664 45E5     		b	.L221
 2575              	.LVL320:
 2576              	.L488:
 457:printf.c      ****   {
 2577              		.loc 1 457 10 view .LVU809
 2578 0666 0446     		mov	r4, r0
 2579 0668 8146     		mov	r9, r0
 2580 066a 7CE5     		b	.L374
 2581              	.L570:
 2582 066c AFF30080 		.align	3
 2583              	.L569:
 2584 0670 0000C0FF 		.word	-4194304
 2585 0674 FFFFDF41 		.word	1105199103
 2586 0678 00000000 		.word	pow10.0
 2587 067c 0000E03F 		.word	1071644672
 2588 0680 67666666 		.word	1717986919
 2589 0684 CDCCCCCC 		.word	-858993459
 2590              	.LVL321:
 2591              	.L243:
 2592              	.LBB244:
 578:printf.c      ****         }
 2593              		.loc 1 578 11 is_stmt 1 view .LVU810
 578:printf.c      ****         }
 2594              		.loc 1 578 17 is_stmt 0 view .LVU811
 2595 0688 4FF0100A 		mov	r10, #16
 2596 068c 44F02004 		orr	r4, r4, #32
 2597              	.LVL322:
 582:printf.c      ****           flags &= ~(FLAGS_PLUS | FLAGS_SPACE);
 2598              		.loc 1 582 9 is_stmt 1 view .LVU812
 578:printf.c      ****         }
 2599              		.loc 1 578 17 is_stmt 0 view .LVU813
 2600 0690 D446     		mov	ip, r10
 2601 0692 85E7     		b	.L241
 2602              	.LVL323:
 2603              	.L540:
 578:printf.c      ****         }
 2604              		.loc 1 578 17 view .LVU814
 2605              	.LBE244:
 2606              	.LBB245:
 2607              	.LBB213:
 315:printf.c      ****     out('a', buffer, idx++, maxlen);
 2608              		.loc 1 315 5 is_stmt 1 view .LVU815
 315:printf.c      ****     out('a', buffer, idx++, maxlen);
 2609              		.loc 1 315 5 is_stmt 0 view .LVU816
 2610 0694 099E     		ldr	r6, [sp, #36]
 2611 0696 089D     		ldr	r5, [sp, #32]
 2612 0698 3346     		mov	r3, r6
 2613 069a 4A46     		mov	r2, r9
 2614 069c 2946     		mov	r1, r5
 2615 069e 6E20     		movs	r0, #110
 2616 06a0 D847     		blx	fp
 2617              	.LVL324:
 316:printf.c      ****     out('n', buffer, idx++, maxlen);
 2618              		.loc 1 316 5 is_stmt 1 view .LVU817
 2619 06a2 09F10204 		add	r4, r9, #2
 2620              	.LVL325:
 316:printf.c      ****     out('n', buffer, idx++, maxlen);
 2621              		.loc 1 316 5 is_stmt 0 view .LVU818
 2622 06a6 3346     		mov	r3, r6
 2623 06a8 09F10102 		add	r2, r9, #1
 2624 06ac 2946     		mov	r1, r5
 2625 06ae 6120     		movs	r0, #97
 2626 06b0 D847     		blx	fp
 2627              	.LVL326:
 317:printf.c      ****     return idx;
 2628              		.loc 1 317 5 is_stmt 1 view .LVU819
 317:printf.c      ****     return idx;
 2629              		.loc 1 317 5 is_stmt 0 view .LVU820
 2630 06b2 2246     		mov	r2, r4
 2631 06b4 3346     		mov	r3, r6
 2632 06b6 2946     		mov	r1, r5
 2633 06b8 6E20     		movs	r0, #110
 2634 06ba 09F10309 		add	r9, r9, #3
 2635              	.LVL327:
 317:printf.c      ****     return idx;
 2636              		.loc 1 317 5 view .LVU821
 2637 06be D847     		blx	fp
 2638              	.LVL328:
 318:printf.c      ****   }
 2639              		.loc 1 318 5 is_stmt 1 view .LVU822
 318:printf.c      ****   }
 2640              		.loc 1 318 12 is_stmt 0 view .LVU823
 2641 06c0 BBE4     		b	.L204
 2642              	.LVL329:
 2643              	.L496:
 351:printf.c      ****   }
 2644              		.loc 1 351 8 is_stmt 1 view .LVU824
 351:printf.c      ****   }
 2645              		.loc 1 351 11 is_stmt 0 view .LVU825
 2646 06c2 DDE91001 		ldrd	r0, [sp, #64]
 2647 06c6 C24B     		ldr	r3, .L571
 2648 06c8 0022     		movs	r2, #0
 2649 06ca FFF7FEFF 		bl	__aeabi_dcmplt
 2650              	.LVL330:
 2651 06ce 0028     		cmp	r0, #0
 2652 06d0 7FF490AE 		bne	.L303
 353:printf.c      ****     // if halfway, round up if odd OR if last digit is 0
 2653              		.loc 1 353 8 is_stmt 1 view .LVU826
 353:printf.c      ****     // if halfway, round up if odd OR if last digit is 0
 2654              		.loc 1 353 11 is_stmt 0 view .LVU827
 2655 06d4 002D     		cmp	r5, #0
 2656 06d6 40F09581 		bne	.L550
 2657              	.L305:
 355:printf.c      ****   }
 2658              		.loc 1 355 5 is_stmt 1 view .LVU828
 2659 06da 2B46     		mov	r3, r5
 2660 06dc 0133     		adds	r3, r3, #1
 2661 06de 1D46     		mov	r5, r3
 2662              	.LVL331:
 355:printf.c      ****   }
 2663              		.loc 1 355 5 is_stmt 0 view .LVU829
 2664 06e0 88E6     		b	.L303
 2665              	.LVL332:
 2666              	.L544:
 355:printf.c      ****   }
 2667              		.loc 1 355 5 view .LVU830
 2668              	.LBE213:
 2669              	.LBE245:
 2670              	.LBB246:
 638:printf.c      ****             out(' ', buffer, idx++, maxlen);
 2671              		.loc 1 638 22 is_stmt 1 view .LVU831
 638:printf.c      ****             out(' ', buffer, idx++, maxlen);
 2672              		.loc 1 638 22 is_stmt 0 view .LVU832
 2673 06e2 0B9B     		ldr	r3, [sp, #44]
 2674 06e4 012B     		cmp	r3, #1
 2675 06e6 40F29481 		bls	.L340
 2676 06ea DDE9085A 		ldrd	r5, r10, [sp, #32]
 2677 06ee 09F1FF36 		add	r6, r9, #-1
 2678 06f2 1E44     		add	r6, r6, r3
 2679 06f4 4C46     		mov	r4, r9
 2680              	.LVL333:
 2681              	.L341:
 639:printf.c      ****           }
 2682              		.loc 1 639 13 is_stmt 1 view .LVU833
 2683 06f6 2246     		mov	r2, r4
 2684 06f8 5346     		mov	r3, r10
 2685 06fa 0134     		adds	r4, r4, #1
 2686              	.LVL334:
 639:printf.c      ****           }
 2687              		.loc 1 639 13 is_stmt 0 view .LVU834
 2688 06fc 2946     		mov	r1, r5
 2689 06fe 2020     		movs	r0, #32
 2690 0700 D847     		blx	fp
 2691              	.LVL335:
 638:printf.c      ****             out(' ', buffer, idx++, maxlen);
 2692              		.loc 1 638 22 is_stmt 1 view .LVU835
 638:printf.c      ****             out(' ', buffer, idx++, maxlen);
 2693              		.loc 1 638 22 is_stmt 0 view .LVU836
 2694 0702 B442     		cmp	r4, r6
 2695 0704 F7D1     		bne	.L341
 643:printf.c      ****         // post padding
 2696              		.loc 1 643 9 is_stmt 1 view .LVU837
 2697              	.LVL336:
 643:printf.c      ****         // post padding
 2698              		.loc 1 643 9 is_stmt 0 discriminator 1 view .LVU838
 2699 0706 0B9B     		ldr	r3, [sp, #44]
 2700 0708 9944     		add	r9, r9, r3
 2701              	.LVL337:
 643:printf.c      ****         // post padding
 2702              		.loc 1 643 9 discriminator 1 view .LVU839
 2703 070a 0A9B     		ldr	r3, [sp, #40]
 2704 070c 2246     		mov	r2, r4
 2705 070e 1878     		ldrb	r0, [r3]	@ zero_extendqisi2
 2706 0710 DDE90813 		ldrd	r1, r3, [sp, #32]
 2707 0714 D847     		blx	fp
 2708              	.LVL338:
 645:printf.c      ****           while (l++ < width) {
 2709              		.loc 1 645 9 is_stmt 1 view .LVU840
 650:printf.c      ****         break;
 2710              		.loc 1 650 9 view .LVU841
 651:printf.c      ****       }
 2711              		.loc 1 651 9 view .LVU842
 643:printf.c      ****         // post padding
 2712              		.loc 1 643 19 is_stmt 0 view .LVU843
 2713 0716 0A97     		str	r7, [sp, #40]
 2714              	.LVL339:
 643:printf.c      ****         // post padding
 2715              		.loc 1 643 19 view .LVU844
 2716 0718 8FE4     		b	.L204
 2717              	.LVL340:
 2718              	.L525:
 643:printf.c      ****         // post padding
 2719              		.loc 1 643 19 view .LVU845
 2720              	.LBE246:
 2721              	.LBB247:
 2722 071a 4C46     		mov	r4, r9
 2723              	.L351:
 2724              	.LVL341:
 672:printf.c      ****             out(' ', buffer, idx++, maxlen);
 2725              		.loc 1 672 22 is_stmt 1 view .LVU846
 672:printf.c      ****             out(' ', buffer, idx++, maxlen);
 2726              		.loc 1 672 22 is_stmt 0 view .LVU847
 2727 071c 0B9B     		ldr	r3, [sp, #44]
 2728 071e 5345     		cmp	r3, r10
 2729 0720 7FF6D6AD 		bls	.L358
 2730 0724 DDE90856 		ldrd	r5, r6, [sp, #32]
 2731 0728 4B44     		add	r3, r3, r9
 2732 072a A3EB0A09 		sub	r9, r3, r10
 2733              	.LVL342:
 672:printf.c      ****             out(' ', buffer, idx++, maxlen);
 2734              		.loc 1 672 22 view .LVU848
 2735 072e 6746     		mov	r7, ip
 2736              	.LVL343:
 2737              	.L366:
 673:printf.c      ****           }
 2738              		.loc 1 673 13 is_stmt 1 view .LVU849
 2739 0730 2246     		mov	r2, r4
 2740 0732 3346     		mov	r3, r6
 2741 0734 0134     		adds	r4, r4, #1
 2742              	.LVL344:
 673:printf.c      ****           }
 2743              		.loc 1 673 13 is_stmt 0 view .LVU850
 2744 0736 2946     		mov	r1, r5
 2745 0738 2020     		movs	r0, #32
 2746 073a D847     		blx	fp
 2747              	.LVL345:
 672:printf.c      ****             out(' ', buffer, idx++, maxlen);
 2748              		.loc 1 672 22 is_stmt 1 view .LVU851
 672:printf.c      ****             out(' ', buffer, idx++, maxlen);
 2749              		.loc 1 672 22 is_stmt 0 view .LVU852
 2750 073c 4C45     		cmp	r4, r9
 2751 073e F7D1     		bne	.L366
 2752 0740 BC46     		mov	ip, r7
 2753 0742 C5E5     		b	.L358
 2754              	.LVL346:
 2755              	.L542:
 672:printf.c      ****             out(' ', buffer, idx++, maxlen);
 2756              		.loc 1 672 22 view .LVU853
 2757              	.LBE247:
 2758              	.LBB248:
 2759              	.LBB214:
 2760 0744 2026     		movs	r6, #32
 2761 0746 13E6     		b	.L299
 2762              	.LVL347:
 2763              	.L547:
 672:printf.c      ****             out(' ', buffer, idx++, maxlen);
 2764              		.loc 1 672 22 view .LVU854
 2765              	.LBE214:
 2766              	.LBE248:
 2767              	.LBB249:
 573:printf.c      ****           flags &= ~FLAGS_HASH;   // no hash for dec format
 2768              		.loc 1 573 11 is_stmt 1 view .LVU855
 574:printf.c      ****         }
 2769              		.loc 1 574 11 view .LVU856
 577:printf.c      ****           flags |= FLAGS_UPPERCASE;
 2770              		.loc 1 577 9 view .LVU857
 582:printf.c      ****           flags &= ~(FLAGS_PLUS | FLAGS_SPACE);
 2771              		.loc 1 582 9 view .LVU858
 587:printf.c      ****           flags &= ~FLAGS_ZEROPAD;
 2772              		.loc 1 587 9 view .LVU859
 587:printf.c      ****           flags &= ~FLAGS_ZEROPAD;
 2773              		.loc 1 587 12 is_stmt 0 view .LVU860
 2774 0748 14F48063 		ands	r3, r4, #1024
 2775 074c 00F04481 		beq	.L551
 2776              	.LVL348:
 2777              	.L246:
 588:printf.c      ****         }
 2778              		.loc 1 588 11 is_stmt 1 view .LVU861
 588:printf.c      ****         }
 2779              		.loc 1 588 17 is_stmt 0 view .LVU862
 2780 0750 24F01101 		bic	r1, r4, #17
 2781              	.LVL349:
 592:printf.c      ****           // signed
 2782              		.loc 1 592 9 is_stmt 1 view .LVU863
 588:printf.c      ****         }
 2783              		.loc 1 588 17 is_stmt 0 view .LVU864
 2784 0754 4FF48063 		mov	r3, #1024
 2785              	.LVL350:
 2786              	.L247:
 594:printf.c      **** #if defined(PRINTF_SUPPORT_LONG_LONG)
 2787              		.loc 1 594 11 is_stmt 1 view .LVU865
 594:printf.c      **** #if defined(PRINTF_SUPPORT_LONG_LONG)
 2788              		.loc 1 594 14 is_stmt 0 view .LVU866
 2789 0758 11F40074 		ands	r4, r1, #512
 2790              	.LBB118:
 596:printf.c      ****             idx = _ntoa_long_long(out, buffer, idx, maxlen, (unsigned long long)(value > 0 ? value 
 2791              		.loc 1 596 29 view .LVU867
 2792 075c 0A9A     		ldr	r2, [sp, #40]
 2793              	.LBE118:
 594:printf.c      **** #if defined(PRINTF_SUPPORT_LONG_LONG)
 2794              		.loc 1 594 14 view .LVU868
 2795 075e 40F0CE80 		bne	.L552
 600:printf.c      ****             const long value = va_arg(va, long);
 2796              		.loc 1 600 16 is_stmt 1 view .LVU869
 600:printf.c      ****             const long value = va_arg(va, long);
 2797              		.loc 1 600 19 is_stmt 0 view .LVU870
 2798 0762 11F48070 		ands	r0, r1, #256
 2799              	.LBB128:
 601:printf.c      ****             idx = _ntoa_long(out, buffer, idx, maxlen, (unsigned long)(value > 0 ? value : 0 - valu
 2800              		.loc 1 601 24 view .LVU871
 2801 0766 02F1040A 		add	r10, r2, #4
 2802              	.LBE128:
 600:printf.c      ****             const long value = va_arg(va, long);
 2803              		.loc 1 600 19 view .LVU872
 2804 076a 40F0C981 		bne	.L553
 2805              	.LBB129:
 605:printf.c      ****             idx = _ntoa_long(out, buffer, idx, maxlen, (unsigned int)(value > 0 ? value : 0 - value
 2806              		.loc 1 605 13 is_stmt 1 view .LVU873
 605:printf.c      ****             idx = _ntoa_long(out, buffer, idx, maxlen, (unsigned int)(value > 0 ? value : 0 - value
 2807              		.loc 1 605 76 is_stmt 0 view .LVU874
 2808 076e 4D06     		lsls	r5, r1, #25
 2809 0770 00F12781 		bmi	.L554
 605:printf.c      ****             idx = _ntoa_long(out, buffer, idx, maxlen, (unsigned int)(value > 0 ? value : 0 - value
 2810              		.loc 1 605 129 discriminator 2 view .LVU875
 2811 0774 0C06     		lsls	r4, r1, #24
 2812 0776 40F18A82 		bpl	.L266
 2813              	.LVL351:
 605:printf.c      ****             idx = _ntoa_long(out, buffer, idx, maxlen, (unsigned int)(value > 0 ? value : 0 - value
 2814              		.loc 1 605 102 discriminator 1 view .LVU876
 2815 077a B2F90040 		ldrsh	r4, [r2]
 606:printf.c      ****           }
 2816              		.loc 1 606 56 view .LVU877
 2817 077e 84EAE477 		eor	r7, r4, r4, asr #31
 2818 0782 A7EBE477 		sub	r7, r7, r4, asr #31
 2819 0786 BFB2     		uxth	r7, r7
 2820              	.LVL352:
 2821              	.L265:
 606:printf.c      ****           }
 2822              		.loc 1 606 13 is_stmt 1 view .LVU878
 606:printf.c      ****           }
 2823              		.loc 1 606 19 is_stmt 0 view .LVU879
 2824 0788 E20F     		lsrs	r2, r4, #31
 2825              	.LVL353:
 2826              	.LBB130:
 2827              	.LBI130:
 249:printf.c      **** {
 2828              		.loc 1 249 15 is_stmt 1 view .LVU880
 2829              	.LBB131:
 251:printf.c      ****   size_t len = 0U;
 2830              		.loc 1 251 3 view .LVU881
 252:printf.c      **** 
 2831              		.loc 1 252 3 view .LVU882
 255:printf.c      ****     flags &= ~FLAGS_HASH;
 2832              		.loc 1 255 3 view .LVU883
 255:printf.c      ****     flags &= ~FLAGS_HASH;
 2833              		.loc 1 255 6 is_stmt 0 view .LVU884
 2834 078a 002C     		cmp	r4, #0
 2835 078c 00F0F481 		beq	.L267
 2836              	.LBE131:
 2837              	.LBE130:
 606:printf.c      ****           }
 2838              		.loc 1 606 19 view .LVU885
 2839 0790 3B46     		mov	r3, r7
 2840              	.L268:
 2841              	.LVL354:
 606:printf.c      ****           }
 2842              		.loc 1 606 19 view .LVU886
 2843 0792 14AC     		add	r4, sp, #80
 2844              	.LVL355:
 2845              	.LBB137:
 2846              	.LBB135:
 2847              	.LBB132:
 262:printf.c      ****       buf[len++] = digit < 10 ? '0' + digit : (flags & FLAGS_UPPERCASE ? 'A' : 'a') + digit - 10;
 2848              		.loc 1 262 39 view .LVU887
 2849 0794 DFF83CC2 		ldr	ip, .L571+4
 2850 0798 1294     		str	r4, [sp, #72]
 2851 079a 01E0     		b	.L270
 2852              	.LVL356:
 2853              	.L555:
 262:printf.c      ****       buf[len++] = digit < 10 ? '0' + digit : (flags & FLAGS_UPPERCASE ? 'A' : 'a') + digit - 10;
 2854              		.loc 1 262 39 view .LVU888
 2855              	.LBE132:
 265:printf.c      ****   }
 2856              		.loc 1 265 20 discriminator 1 view .LVU889
 2857 079c 2028     		cmp	r0, #32
 2858 079e 10D0     		beq	.L269
 2859              	.LVL357:
 2860              	.L270:
 261:printf.c      ****       const char digit = (char)(value % base);
 2861              		.loc 1 261 5 is_stmt 1 view .LVU890
 2862              	.LBB133:
 262:printf.c      ****       buf[len++] = digit < 10 ? '0' + digit : (flags & FLAGS_UPPERCASE ? 'A' : 'a') + digit - 10;
 2863              		.loc 1 262 7 view .LVU891
 263:printf.c      ****       value /= base;
 2864              		.loc 1 263 7 view .LVU892
 262:printf.c      ****       buf[len++] = digit < 10 ? '0' + digit : (flags & FLAGS_UPPERCASE ? 'A' : 'a') + digit - 10;
 2865              		.loc 1 262 39 is_stmt 0 view .LVU893
 2866 07a0 ACFB0375 		umull	r7, r5, ip, r3
 2867 07a4 ED08     		lsrs	r5, r5, #3
 2868 07a6 05EB8507 		add	r7, r5, r5, lsl #2
 2869 07aa A3EB4707 		sub	r7, r3, r7, lsl #1
 2870 07ae 9E46     		mov	lr, r3
 263:printf.c      ****       value /= base;
 2871              		.loc 1 263 18 discriminator 1 view .LVU894
 2872 07b0 3037     		adds	r7, r7, #48
 2873              	.LBE133:
 265:printf.c      ****   }
 2874              		.loc 1 265 20 view .LVU895
 2875 07b2 BEF1090F 		cmp	lr, #9
 2876              	.LBB134:
 263:printf.c      ****       value /= base;
 2877              		.loc 1 263 18 discriminator 8 view .LVU896
 2878 07b6 04F8017B 		strb	r7, [r4], #1
 263:printf.c      ****       value /= base;
 2879              		.loc 1 263 14 discriminator 8 view .LVU897
 2880 07ba 00F10100 		add	r0, r0, #1
 2881              	.LVL358:
 264:printf.c      ****     } while (value && (len < PRINTF_NTOA_BUFFER_SIZE));
 2882              		.loc 1 264 7 is_stmt 1 view .LVU898
 264:printf.c      ****     } while (value && (len < PRINTF_NTOA_BUFFER_SIZE));
 2883              		.loc 1 264 13 is_stmt 0 view .LVU899
 2884 07be 2B46     		mov	r3, r5
 2885              	.LVL359:
 264:printf.c      ****     } while (value && (len < PRINTF_NTOA_BUFFER_SIZE));
 2886              		.loc 1 264 13 view .LVU900
 2887              	.LBE134:
 265:printf.c      ****   }
 2888              		.loc 1 265 20 is_stmt 1 view .LVU901
 2889 07c0 ECD8     		bhi	.L555
 2890              	.LVL360:
 2891              	.L269:
 268:printf.c      **** }
 2892              		.loc 1 268 3 view .LVU902
 268:printf.c      **** }
 2893              		.loc 1 268 10 is_stmt 0 view .LVU903
 2894 07c2 0B9B     		ldr	r3, [sp, #44]
 2895 07c4 0691     		str	r1, [sp, #24]
 2896 07c6 CDE90463 		strd	r6, r3, [sp, #16]
 2897 07ca CDE90102 		strd	r0, r2, [sp, #4]
 2898              	.LVL361:
 2899              	.L528:
 268:printf.c      **** }
 2900              		.loc 1 268 10 view .LVU904
 2901 07ce 129B     		ldr	r3, [sp, #72]
 2902 07d0 0093     		str	r3, [sp]
 2903 07d2 0A23     		movs	r3, #10
 2904 07d4 4A46     		mov	r2, r9
 2905 07d6 0393     		str	r3, [sp, #12]
 2906 07d8 5846     		mov	r0, fp
 2907 07da DDE90813 		ldrd	r1, r3, [sp, #32]
 2908 07de FFF7FEFF 		bl	_ntoa_format
 2909              	.LVL362:
 268:printf.c      **** }
 2910              		.loc 1 268 10 view .LVU905
 2911 07e2 CDF828A0 		str	r10, [sp, #40]
 2912 07e6 8146     		mov	r9, r0
 268:printf.c      **** }
 2913              		.loc 1 268 10 view .LVU906
 2914 07e8 27E4     		b	.L204
 2915              	.LVL363:
 2916              	.L405:
 268:printf.c      **** }
 2917              		.loc 1 268 10 view .LVU907
 2918              	.LBE135:
 2919              	.LBE137:
 2920              	.LBE129:
 2921              	.LBE249:
 2922              	.LBB250:
 2923              	.LBB215:
 361:printf.c      ****   }
 2924              		.loc 1 361 12 view .LVU908
 2925 07ea 4FF00009 		mov	r9, #0
 2926 07ee 24E4     		b	.L204
 2927              	.LVL364:
 2928              	.L248:
 361:printf.c      ****   }
 2929              		.loc 1 361 12 view .LVU909
 2930              	.LBE215:
 2931              	.LBE250:
 2932              	.LBB251:
 583:printf.c      ****         }
 2933              		.loc 1 583 17 view .LVU910
 2934 07f0 24F00C03 		bic	r3, r4, #12
 2935 07f4 DAE6     		b	.L249
 2936              	.LVL365:
 2937              	.L306:
 583:printf.c      ****         }
 2938              		.loc 1 583 17 view .LVU911
 2939              	.LBE251:
 2940              	.LBB252:
 2941              	.LBB216:
 365:printf.c      ****     if ((!(diff < 0.5) || (diff > 0.5)) && (whole & 1)) {
 2942              		.loc 1 365 5 is_stmt 1 view .LVU912
 366:printf.c      ****       // exactly 0.5 and ODD, then round up
 2943              		.loc 1 366 5 view .LVU913
 365:printf.c      ****     if ((!(diff < 0.5) || (diff > 0.5)) && (whole & 1)) {
 2944              		.loc 1 365 20 is_stmt 0 view .LVU914
 2945 07f6 3846     		mov	r0, r7
 2946 07f8 FFF7FEFF 		bl	__aeabi_i2d
 2947              	.LVL366:
 2948 07fc 0246     		mov	r2, r0
 2949 07fe 0B46     		mov	r3, r1
 365:printf.c      ****     if ((!(diff < 0.5) || (diff > 0.5)) && (whole & 1)) {
 2950              		.loc 1 365 10 view .LVU915
 2951 0800 DDE90C01 		ldrd	r0, [sp, #48]
 2952 0804 FFF7FEFF 		bl	__aeabi_dsub
 2953              	.LVL367:
 366:printf.c      ****       // exactly 0.5 and ODD, then round up
 2954              		.loc 1 366 8 view .LVU916
 2955 0808 714B     		ldr	r3, .L571
 2956 080a 0022     		movs	r2, #0
 2957 080c FFF7FEFF 		bl	__aeabi_dcmplt
 2958              	.LVL368:
 2959 0810 0028     		cmp	r0, #0
 2960 0812 7FF419AE 		bne	.L308
 366:printf.c      ****       // exactly 0.5 and ODD, then round up
 2961              		.loc 1 366 41 discriminator 3 view .LVU917
 2962 0816 0137     		adds	r7, r7, #1
 2963              	.LVL369:
 366:printf.c      ****       // exactly 0.5 and ODD, then round up
 2964              		.loc 1 366 41 discriminator 3 view .LVU918
 2965 0818 27F00107 		bic	r7, r7, #1
 2966              	.LVL370:
 366:printf.c      ****       // exactly 0.5 and ODD, then round up
 2967              		.loc 1 366 41 discriminator 3 view .LVU919
 2968 081c 14E6     		b	.L308
 2969              	.LVL371:
 2970              	.L315:
 401:printf.c      ****     if (width && (negative || (flags & (FLAGS_PLUS | FLAGS_SPACE)))) {
 2971              		.loc 1 401 3 is_stmt 1 view .LVU920
 401:printf.c      ****     if (width && (negative || (flags & (FLAGS_PLUS | FLAGS_SPACE)))) {
 2972              		.loc 1 401 29 is_stmt 0 view .LVU921
 2973 081e 04F00302 		and	r2, r4, #3
 2974              	.LVL372:
 401:printf.c      ****     if (width && (negative || (flags & (FLAGS_PLUS | FLAGS_SPACE)))) {
 2975              		.loc 1 401 6 view .LVU922
 2976 0822 012A     		cmp	r2, #1
 2977 0824 00F09682 		beq	.L556
 410:printf.c      ****     if (negative) {
 2978              		.loc 1 410 3 is_stmt 1 view .LVU923
 410:printf.c      ****     if (negative) {
 2979              		.loc 1 410 6 is_stmt 0 view .LVU924
 2980 0828 202B     		cmp	r3, #32
 2981 082a 00F09082 		beq	.L411
 411:printf.c      ****       buf[len++] = '-';
 2982              		.loc 1 411 5 is_stmt 1 view .LVU925
 411:printf.c      ****       buf[len++] = '-';
 2983              		.loc 1 411 8 is_stmt 0 view .LVU926
 2984 082e 1399     		ldr	r1, [sp, #76]
 2985 0830 0029     		cmp	r1, #0
 2986 0832 40F0D480 		bne	.L557
 414:printf.c      ****       buf[len++] = '+';  // ignore the space if the '+' exists
 2987              		.loc 1 414 10 is_stmt 1 view .LVU927
 414:printf.c      ****       buf[len++] = '+';  // ignore the space if the '+' exists
 2988              		.loc 1 414 13 is_stmt 0 view .LVU928
 2989 0836 6507     		lsls	r5, r4, #29
 2990 0838 40F11E82 		bpl	.L334
 415:printf.c      ****     }
 2991              		.loc 1 415 7 is_stmt 1 view .LVU929
 415:printf.c      ****     }
 2992              		.loc 1 415 18 is_stmt 0 view .LVU930
 2993 083c 0DEB0301 		add	r1, sp, r3
 2994 0840 2B20     		movs	r0, #43
 415:printf.c      ****     }
 2995              		.loc 1 415 14 view .LVU931
 2996 0842 0236     		adds	r6, r6, #2
 2997              	.LVL373:
 415:printf.c      ****     }
 2998              		.loc 1 415 18 view .LVU932
 2999 0844 81F85000 		strb	r0, [r1, #80]
 3000              	.LVL374:
 3001              	.L331:
 423:printf.c      ****     for (size_t i = len; i < width; i++) {
 3002              		.loc 1 423 3 is_stmt 1 view .LVU933
 423:printf.c      ****     for (size_t i = len; i < width; i++) {
 3003              		.loc 1 423 6 is_stmt 0 view .LVU934
 3004 0848 002A     		cmp	r2, #0
 3005 084a 7FF438AE 		bne	.L324
 3006              	.LVL375:
 3007              	.LBB204:
 424:printf.c      ****       out(' ', buffer, idx++, maxlen);
 3008              		.loc 1 424 28 is_stmt 1 discriminator 1 view .LVU935
 3009 084e 0B9A     		ldr	r2, [sp, #44]
 3010 0850 B242     		cmp	r2, r6
 3011 0852 7FF634AE 		bls	.L324
 3012 0856 0C94     		str	r4, [sp, #48]
 3013              	.LVL376:
 424:printf.c      ****       out(' ', buffer, idx++, maxlen);
 3014              		.loc 1 424 28 is_stmt 0 discriminator 1 view .LVU936
 3015 0858 DDE90845 		ldrd	r4, r5, [sp, #32]
 3016              	.LVL377:
 424:printf.c      ****       out(' ', buffer, idx++, maxlen);
 3017              		.loc 1 424 28 discriminator 1 view .LVU937
 3018 085c 02EB090A 		add	r10, r2, r9
 3019 0860 AAEB060A 		sub	r10, r10, r6
 3020 0864 4F46     		mov	r7, r9
 3021 0866 0E93     		str	r3, [sp, #56]
 3022              	.LVL378:
 3023              	.L335:
 425:printf.c      ****     }
 3024              		.loc 1 425 7 is_stmt 1 view .LVU938
 3025 0868 3A46     		mov	r2, r7
 3026 086a 2B46     		mov	r3, r5
 3027 086c 0137     		adds	r7, r7, #1
 3028              	.LVL379:
 425:printf.c      ****     }
 3029              		.loc 1 425 7 is_stmt 0 view .LVU939
 3030 086e 2146     		mov	r1, r4
 3031 0870 2020     		movs	r0, #32
 3032 0872 D847     		blx	fp
 3033              	.LVL380:
 424:printf.c      ****       out(' ', buffer, idx++, maxlen);
 3034              		.loc 1 424 38 is_stmt 1 discriminator 3 view .LVU940
 424:printf.c      ****       out(' ', buffer, idx++, maxlen);
 3035              		.loc 1 424 28 discriminator 1 view .LVU941
 3036 0874 5745     		cmp	r7, r10
 3037 0876 F7D1     		bne	.L335
 3038 0878 0C9C     		ldr	r4, [sp, #48]
 3039 087a 0E9B     		ldr	r3, [sp, #56]
 3040              	.LVL381:
 3041              	.L323:
 424:printf.c      ****       out(' ', buffer, idx++, maxlen);
 3042              		.loc 1 424 28 is_stmt 0 discriminator 1 view .LVU942
 3043              	.LBE204:
 3044              	.LBB205:
 430:printf.c      ****     out(buf[len - i - 1U], buffer, idx++, maxlen);
 3045              		.loc 1 430 25 is_stmt 1 discriminator 1 view .LVU943
 3046 087c 129F     		ldr	r7, [sp, #72]
 3047 087e 1294     		str	r4, [sp, #72]
 3048 0880 DDE90845 		ldrd	r4, r5, [sp, #32]
 3049 0884 0133     		adds	r3, r3, #1
 3050 0886 1F44     		add	r7, r7, r3
 3051 0888 5644     		add	r6, r6, r10
 3052              	.L336:
 431:printf.c      ****   }
 3053              		.loc 1 431 5 view .LVU944
 3054 088a 5246     		mov	r2, r10
 3055 088c 17F8010D 		ldrb	r0, [r7, #-1]!	@ zero_extendqisi2
 3056 0890 0AF1010A 		add	r10, r10, #1
 3057              	.LVL382:
 431:printf.c      ****   }
 3058              		.loc 1 431 5 is_stmt 0 view .LVU945
 3059 0894 2B46     		mov	r3, r5
 3060 0896 2146     		mov	r1, r4
 3061 0898 D847     		blx	fp
 3062              	.LVL383:
 430:printf.c      ****     out(buf[len - i - 1U], buffer, idx++, maxlen);
 3063              		.loc 1 430 33 is_stmt 1 discriminator 3 view .LVU946
 430:printf.c      ****     out(buf[len - i - 1U], buffer, idx++, maxlen);
 3064              		.loc 1 430 25 discriminator 1 view .LVU947
 3065 089a B245     		cmp	r10, r6
 3066 089c F5D1     		bne	.L336
 3067              	.LBE205:
 435:printf.c      ****     while (idx - start_idx < width) {
 3068              		.loc 1 435 3 view .LVU948
 3069              	.LBB206:
 3070 089e 129C     		ldr	r4, [sp, #72]
 3071              	.LBE206:
 435:printf.c      ****     while (idx - start_idx < width) {
 3072              		.loc 1 435 6 is_stmt 0 view .LVU949
 3073 08a0 A107     		lsls	r1, r4, #30
 3074 08a2 40F1BE80 		bpl	.L415
 436:printf.c      ****       out(' ', buffer, idx++, maxlen);
 3075              		.loc 1 436 28 is_stmt 1 view .LVU950
 3076 08a6 0B9D     		ldr	r5, [sp, #44]
 436:printf.c      ****       out(' ', buffer, idx++, maxlen);
 3077              		.loc 1 436 16 is_stmt 0 view .LVU951
 3078 08a8 AAEB0904 		sub	r4, r10, r9
 436:printf.c      ****       out(' ', buffer, idx++, maxlen);
 3079              		.loc 1 436 28 view .LVU952
 3080 08ac A542     		cmp	r5, r4
 3081 08ae D146     		mov	r9, r10
 3082 08b0 7FF6C3AB 		bls	.L204
 3083 08b4 DDE90867 		ldrd	r6, r7, [sp, #32]
 3084              	.LVL384:
 3085              	.L338:
 437:printf.c      ****     }
 3086              		.loc 1 437 7 is_stmt 1 view .LVU953
 3087 08b8 4A46     		mov	r2, r9
 3088              	.LVL385:
 437:printf.c      ****     }
 3089              		.loc 1 437 7 is_stmt 0 view .LVU954
 3090 08ba 3B46     		mov	r3, r7
 3091 08bc 3146     		mov	r1, r6
 3092 08be 2020     		movs	r0, #32
 436:printf.c      ****       out(' ', buffer, idx++, maxlen);
 3093              		.loc 1 436 28 view .LVU955
 3094 08c0 0134     		adds	r4, r4, #1
 437:printf.c      ****     }
 3095              		.loc 1 437 7 view .LVU956
 3096 08c2 D847     		blx	fp
 3097              	.LVL386:
 436:printf.c      ****       out(' ', buffer, idx++, maxlen);
 3098              		.loc 1 436 28 view .LVU957
 3099 08c4 A542     		cmp	r5, r4
 437:printf.c      ****     }
 3100              		.loc 1 437 7 view .LVU958
 3101 08c6 09F10109 		add	r9, r9, #1
 3102              	.LVL387:
 436:printf.c      ****       out(' ', buffer, idx++, maxlen);
 3103              		.loc 1 436 28 is_stmt 1 view .LVU959
 3104 08ca F5D8     		bhi	.L338
 3105 08cc FFF7B5BB 		b	.L204
 3106              	.LVL388:
 3107              	.L309:
 3108              	.LBB207:
 383:printf.c      ****       buf[len++] = '0';
 3109              		.loc 1 383 44 view .LVU960
 3110 08d0 202B     		cmp	r3, #32
 3111 08d2 3FF4B8AD 		beq	.L311
 3112 08d6 129A     		ldr	r2, [sp, #72]
 3113 08d8 9A44     		add	r10, r10, r3
 3114              	.LVL389:
 383:printf.c      ****       buf[len++] = '0';
 3115              		.loc 1 383 44 is_stmt 0 view .LVU961
 3116 08da 1644     		add	r6, r6, r2
 384:printf.c      ****     }
 3117              		.loc 1 384 18 view .LVU962
 3118 08dc 3022     		movs	r2, #48
 3119 08de 05E0     		b	.L312
 3120              	.L313:
 384:printf.c      ****     }
 3121              		.loc 1 384 14 view .LVU963
 3122 08e0 0133     		adds	r3, r3, #1
 3123              	.LVL390:
 383:printf.c      ****       buf[len++] = '0';
 3124              		.loc 1 383 44 view .LVU964
 3125 08e2 202B     		cmp	r3, #32
 384:printf.c      ****     }
 3126              		.loc 1 384 18 view .LVU965
 3127 08e4 06F8012F 		strb	r2, [r6, #1]!
 383:printf.c      ****       buf[len++] = '0';
 3128              		.loc 1 383 44 is_stmt 1 view .LVU966
 3129 08e8 3FF4ADAD 		beq	.L311
 3130              	.LVL391:
 3131              	.L312:
 384:printf.c      ****     }
 3132              		.loc 1 384 7 view .LVU967
 383:printf.c      ****       buf[len++] = '0';
 3133              		.loc 1 383 44 is_stmt 0 discriminator 1 view .LVU968
 3134 08ec 5345     		cmp	r3, r10
 3135 08ee F7D1     		bne	.L313
 386:printf.c      ****       // add decimal
 3136              		.loc 1 386 5 is_stmt 1 view .LVU969
 388:printf.c      ****     }
 3137              		.loc 1 388 7 view .LVU970
 388:printf.c      ****     }
 3138              		.loc 1 388 18 is_stmt 0 view .LVU971
 3139 08f0 0DEB0302 		add	r2, sp, r3
 388:printf.c      ****     }
 3140              		.loc 1 388 14 view .LVU972
 3141 08f4 5E1C     		adds	r6, r3, #1
 3142              	.LVL392:
 388:printf.c      ****     }
 3143              		.loc 1 388 18 view .LVU973
 3144 08f6 2E23     		movs	r3, #46
 3145 08f8 82F85030 		strb	r3, [r2, #80]
 3146 08fc A4E5     		b	.L308
 3147              	.LVL393:
 3148              	.L552:
 388:printf.c      ****     }
 3149              		.loc 1 388 18 view .LVU974
 3150              	.LBE207:
 3151              	.LBE216:
 3152              	.LBE252:
 3153              	.LBB253:
 3154              	.LBB139:
 596:printf.c      ****             idx = _ntoa_long_long(out, buffer, idx, maxlen, (unsigned long long)(value > 0 ? value 
 3155              		.loc 1 596 13 is_stmt 1 view .LVU975
 596:printf.c      ****             idx = _ntoa_long_long(out, buffer, idx, maxlen, (unsigned long long)(value > 0 ? value 
 3156              		.loc 1 596 29 is_stmt 0 view .LVU976
 3157 08fe 0732     		adds	r2, r2, #7
 3158 0900 22F00702 		bic	r2, r2, #7
 3159              	.LVL394:
 596:printf.c      ****             idx = _ntoa_long_long(out, buffer, idx, maxlen, (unsigned long long)(value > 0 ? value 
 3160              		.loc 1 596 29 view .LVU977
 3161 0904 1046     		mov	r0, r2
 3162 0906 5268     		ldr	r2, [r2, #4]
 3163              	.LVL395:
 597:printf.c      **** #endif
 3164              		.loc 1 597 13 is_stmt 1 view .LVU978
 596:printf.c      ****             idx = _ntoa_long_long(out, buffer, idx, maxlen, (unsigned long long)(value > 0 ? value 
 3165              		.loc 1 596 29 is_stmt 0 view .LVU979
 3166 0908 50F8084B 		ldr	r4, [r0], #8
 3167              	.LVL396:
 596:printf.c      ****             idx = _ntoa_long_long(out, buffer, idx, maxlen, (unsigned long long)(value > 0 ? value 
 3168              		.loc 1 596 29 view .LVU980
 3169 090c 0A90     		str	r0, [sp, #40]
 3170              	.LBB119:
 3171              	.LBB120:
 280:printf.c      ****     flags &= ~FLAGS_HASH;
 3172              		.loc 1 280 6 view .LVU981
 3173 090e 54EA0207 		orrs	r7, r4, r2
 3174              	.LBE120:
 3175              	.LBE119:
 597:printf.c      **** #endif
 3176              		.loc 1 597 19 view .LVU982
 3177 0912 4FEAD270 		lsr	r0, r2, #31
 3178              	.LVL397:
 3179              	.LBB126:
 3180              	.LBI119:
 274:printf.c      **** {
 3181              		.loc 1 274 15 is_stmt 1 view .LVU983
 3182              	.LBB124:
 276:printf.c      ****   size_t len = 0U;
 3183              		.loc 1 276 3 view .LVU984
 277:printf.c      **** 
 3184              		.loc 1 277 3 view .LVU985
 280:printf.c      ****     flags &= ~FLAGS_HASH;
 3185              		.loc 1 280 3 view .LVU986
 280:printf.c      ****     flags &= ~FLAGS_HASH;
 3186              		.loc 1 280 6 is_stmt 0 view .LVU987
 3187 0916 6ED1     		bne	.L558
 281:printf.c      ****   }
 3188              		.loc 1 281 5 is_stmt 1 view .LVU988
 285:printf.c      ****     do {
 3189              		.loc 1 285 3 view .LVU989
 285:printf.c      ****     do {
 3190              		.loc 1 285 6 is_stmt 0 view .LVU990
 3191 0918 002B     		cmp	r3, #0
 3192 091a 40F0C981 		bne	.L396
 3193 091e 1A46     		mov	r2, r3
 3194              	.LVL398:
 3195              	.L253:
 285:printf.c      ****     do {
 3196              		.loc 1 285 6 view .LVU991
 3197 0920 14AC     		add	r4, sp, #80
 3198              	.LVL399:
 285:printf.c      ****     do {
 3199              		.loc 1 285 6 view .LVU992
 3200 0922 2546     		mov	r5, r4
 3201 0924 1294     		str	r4, [sp, #72]
 3202 0926 AE46     		mov	lr, r5
 3203 0928 2A4C     		ldr	r4, .L571+4
 3204 092a 0C91     		str	r1, [sp, #48]
 3205 092c 4FF0000A 		mov	r10, #0
 3206 0930 0E90     		str	r0, [sp, #56]
 3207 0932 02E0     		b	.L257
 3208              	.LVL400:
 3209              	.L559:
 290:printf.c      ****   }
 3210              		.loc 1 290 20 discriminator 1 view .LVU993
 3211 0934 BAF1200F 		cmp	r10, #32
 3212 0938 2ED0     		beq	.L509
 3213              	.LVL401:
 3214              	.L257:
 286:printf.c      ****       const char digit = (char)(value % base);
 3215              		.loc 1 286 5 is_stmt 1 view .LVU994
 3216              	.LBB121:
 287:printf.c      ****       buf[len++] = digit < 10 ? '0' + digit : (flags & FLAGS_UPPERCASE ? 'A' : 'a') + digit - 10;
 3217              		.loc 1 287 7 view .LVU995
 3218 093a 9918     		adds	r1, r3, r2
 3219 093c 41F10001 		adc	r1, r1, #0
 3220 0940 A4FB0105 		umull	r0, r5, r4, r1
 3221 0944 25F00300 		bic	r0, r5, #3
 3222 0948 00EB9500 		add	r0, r0, r5, lsr #2
 3223 094c 091A     		subs	r1, r1, r0
 3224 094e 581A     		subs	r0, r3, r1
 3225 0950 9C46     		mov	ip, r3
 3226 0952 1746     		mov	r7, r2
 3227 0954 62F10003 		sbc	r3, r2, #0
 3228              	.LVL402:
 287:printf.c      ****       buf[len++] = digit < 10 ? '0' + digit : (flags & FLAGS_UPPERCASE ? 'A' : 'a') + digit - 10;
 3229              		.loc 1 287 7 is_stmt 0 view .LVU996
 3230 0958 4FF0CC32 		mov	r2, #-858993460
 3231              	.LVL403:
 287:printf.c      ****       buf[len++] = digit < 10 ? '0' + digit : (flags & FLAGS_UPPERCASE ? 'A' : 'a') + digit - 10;
 3232              		.loc 1 287 7 view .LVU997
 3233 095c 02FB00F2 		mul	r2, r2, r0
 3234 0960 04FB0322 		mla	r2, r4, r3, r2
 3235 0964 A0FB0430 		umull	r3, r0, r0, r4
 3236 0968 0244     		add	r2, r2, r0
 3237 096a 03F00105 		and	r5, r3, #1
 3238 096e 0520     		movs	r0, #5
 3239 0970 A5FB0005 		umull	r0, r5, r5, r0
 3240 0974 4018     		adds	r0, r0, r1
 3241              	.LBE121:
 290:printf.c      ****   }
 3242              		.loc 1 290 20 view .LVU998
 3243 0976 BCF10A0F 		cmp	ip, #10
 3244 097a 4FEA5303 		lsr	r3, r3, #1
 3245              	.LVL404:
 3246              	.LBB122:
 288:printf.c      ****       value /= base;
 3247              		.loc 1 288 7 is_stmt 1 view .LVU999
 288:printf.c      ****       value /= base;
 3248              		.loc 1 288 18 is_stmt 0 discriminator 1 view .LVU1000
 3249 097e 00F13000 		add	r0, r0, #48
 3250              	.LVL405:
 288:printf.c      ****       value /= base;
 3251              		.loc 1 288 18 discriminator 1 view .LVU1001
 3252              	.LBE122:
 290:printf.c      ****   }
 3253              		.loc 1 290 20 view .LVU1002
 3254 0982 77F10007 		sbcs	r7, r7, #0
 3255              	.LVL406:
 3256              	.LBB123:
 289:printf.c      ****     } while (value && (len < PRINTF_NTOA_BUFFER_SIZE));
 3257              		.loc 1 289 13 view .LVU1003
 3258 0986 43EAC273 		orr	r3, r3, r2, lsl #31
 288:printf.c      ****       value /= base;
 3259              		.loc 1 288 18 discriminator 8 view .LVU1004
 3260 098a 0EF8010B 		strb	r0, [lr], #1
 288:printf.c      ****       value /= base;
 3261              		.loc 1 288 14 discriminator 8 view .LVU1005
 3262 098e 0AF1010A 		add	r10, r10, #1
 3263              	.LVL407:
 289:printf.c      ****     } while (value && (len < PRINTF_NTOA_BUFFER_SIZE));
 3264              		.loc 1 289 7 is_stmt 1 view .LVU1006
 289:printf.c      ****     } while (value && (len < PRINTF_NTOA_BUFFER_SIZE));
 3265              		.loc 1 289 13 is_stmt 0 view .LVU1007
 3266 0992 4FEA5202 		lsr	r2, r2, #1
 3267              	.LVL408:
 289:printf.c      ****     } while (value && (len < PRINTF_NTOA_BUFFER_SIZE));
 3268              		.loc 1 289 13 view .LVU1008
 3269              	.LBE123:
 290:printf.c      ****   }
 3270              		.loc 1 290 20 is_stmt 1 view .LVU1009
 3271 0996 CDD2     		bcs	.L559
 3272              	.L509:
 3273 0998 0C99     		ldr	r1, [sp, #48]
 3274 099a 0E98     		ldr	r0, [sp, #56]
 3275              	.LVL409:
 3276              	.L254:
 293:printf.c      **** }
 3277              		.loc 1 293 3 view .LVU1010
 293:printf.c      **** }
 3278              		.loc 1 293 10 is_stmt 0 view .LVU1011
 3279 099c 0B9B     		ldr	r3, [sp, #44]
 3280 099e 0691     		str	r1, [sp, #24]
 3281              	.LVL410:
 293:printf.c      **** }
 3282              		.loc 1 293 10 view .LVU1012
 3283 09a0 CDE90463 		strd	r6, r3, [sp, #16]
 3284 09a4 CDE901A0 		strd	r10, r0, [sp, #4]
 3285 09a8 129B     		ldr	r3, [sp, #72]
 3286 09aa 0093     		str	r3, [sp]
 3287 09ac 0A23     		movs	r3, #10
 3288 09ae 4A46     		mov	r2, r9
 3289 09b0 0393     		str	r3, [sp, #12]
 3290              	.LVL411:
 3291              	.L527:
 293:printf.c      **** }
 3292              		.loc 1 293 10 view .LVU1013
 3293              	.LBE124:
 3294              	.LBE126:
 3295              	.LBE139:
 3296              	.LBB140:
 3297              	.LBB141:
 3298 09b2 DDE90813 		ldrd	r1, r3, [sp, #32]
 3299 09b6 5846     		mov	r0, fp
 3300 09b8 FFF7FEFF 		bl	_ntoa_format
 3301              	.LVL412:
 293:printf.c      **** }
 3302              		.loc 1 293 10 view .LVU1014
 3303 09bc 8146     		mov	r9, r0
 293:printf.c      **** }
 3304              		.loc 1 293 10 view .LVU1015
 3305              	.LBE141:
 3306              	.LBE140:
 3307 09be FFF73CBB 		b	.L204
 3308              	.LVL413:
 3309              	.L554:
 293:printf.c      **** }
 3310              		.loc 1 293 10 view .LVU1016
 3311 09c2 1478     		ldrb	r4, [r2]	@ zero_extendqisi2
 3312              	.LBB151:
 3313 09c4 2746     		mov	r7, r4
 3314 09c6 DFE6     		b	.L265
 3315              	.LVL414:
 3316              	.L394:
 293:printf.c      **** }
 3317              		.loc 1 293 10 view .LVU1017
 3318              	.LBE151:
 3319              	.LBE253:
 553:printf.c      ****       case 'd' :
 3320              		.loc 1 553 5 view .LVU1018
 3321 09c8 4FF0100A 		mov	r10, #16
 3322 09cc D446     		mov	ip, r10
 3323 09ce E7E5     		b	.L241
 3324              	.L572:
 3325              		.align	2
 3326              	.L571:
 3327 09d0 0000E03F 		.word	1071644672
 3328 09d4 CDCCCCCC 		.word	-858993459
 3329              	.LVL415:
 3330              	.L551:
 3331              	.LBB254:
 574:printf.c      ****         }
 3332              		.loc 1 574 17 view .LVU1019
 3333 09d8 24F01001 		bic	r1, r4, #16
 3334 09dc BCE6     		b	.L247
 3335              	.LVL416:
 3336              	.L557:
 574:printf.c      ****         }
 3337              		.loc 1 574 17 view .LVU1020
 3338              	.LBE254:
 3339              	.LBB255:
 3340              	.LBB217:
 412:printf.c      ****     }
 3341              		.loc 1 412 7 is_stmt 1 view .LVU1021
 412:printf.c      ****     }
 3342              		.loc 1 412 18 is_stmt 0 view .LVU1022
 3343 09de 0DEB0301 		add	r1, sp, r3
 3344 09e2 2D20     		movs	r0, #45
 412:printf.c      ****     }
 3345              		.loc 1 412 14 view .LVU1023
 3346 09e4 0236     		adds	r6, r6, #2
 3347              	.LVL417:
 412:printf.c      ****     }
 3348              		.loc 1 412 18 view .LVU1024
 3349 09e6 81F85000 		strb	r0, [r1, #80]
 3350 09ea 2DE7     		b	.L331
 3351              	.LVL418:
 3352              	.L283:
 412:printf.c      ****     }
 3353              		.loc 1 412 18 view .LVU1025
 3354              	.LBE217:
 3355              	.LBE255:
 3356              	.LBB256:
 3357              	.LBB152:
 620:printf.c      ****             idx = _ntoa_long(out, buffer, idx, maxlen, value, false, base, precision, width, flags)
 3358              		.loc 1 620 174 discriminator 2 view .LVU1026
 3359 09ec 1F06     		lsls	r7, r3, #24
 3360 09ee 4CBF     		ite	mi
 3361 09f0 1288     		ldrhmi	r2, [r2]
 620:printf.c      ****             idx = _ntoa_long(out, buffer, idx, maxlen, value, false, base, precision, width, flags)
 3362              		.loc 1 620 174 discriminator 5 view .LVU1027
 3363 09f2 1268     		ldrpl	r2, [r2]
 3364 09f4 E9E5     		b	.L284
 3365              	.LVL419:
 3366              	.L558:
 620:printf.c      ****             idx = _ntoa_long(out, buffer, idx, maxlen, value, false, base, precision, width, flags)
 3367              		.loc 1 620 174 discriminator 5 view .LVU1028
 3368              	.LBE152:
 3369              	.LBB153:
 597:printf.c      **** #endif
 3370              		.loc 1 597 61 view .LVU1029
 3371 09f6 002A     		cmp	r2, #0
 3372              	.LVL420:
 597:printf.c      **** #endif
 3373              		.loc 1 597 61 view .LVU1030
 3374 09f8 2346     		mov	r3, r4
 3375 09fa 91DA     		bge	.L253
 3376              	.LVL421:
 597:printf.c      **** #endif
 3377              		.loc 1 597 61 view .LVU1031
 3378 09fc 6342     		negs	r3, r4
 3379              	.LVL422:
 597:printf.c      **** #endif
 3380              		.loc 1 597 61 view .LVU1032
 3381 09fe 62EB4202 		sbc	r2, r2, r2, lsl #1
 3382              	.LVL423:
 597:printf.c      **** #endif
 3383              		.loc 1 597 61 view .LVU1033
 3384 0a02 8DE7     		b	.L253
 3385              	.LVL424:
 3386              	.L550:
 597:printf.c      **** #endif
 3387              		.loc 1 597 61 view .LVU1034
 3388              	.LBE153:
 3389              	.LBE256:
 3390              	.LBB257:
 3391              	.LBB218:
 353:printf.c      ****     // if halfway, round up if odd OR if last digit is 0
 3392              		.loc 1 353 25 discriminator 1 view .LVU1035
 3393 0a04 E907     		lsls	r1, r5, #31
 3394 0a06 7FF5F5AC 		bpl	.L303
 3395 0a0a 66E6     		b	.L305
 3396              	.LVL425:
 3397              	.L426:
 402:printf.c      ****       width--;
 3398              		.loc 1 402 8 view .LVU1036
 3399 0a0c CA46     		mov	r10, r9
 3400 0a0e 1F23     		movs	r3, #31
 3401 0a10 34E7     		b	.L323
 3402              	.LVL426:
 3403              	.L340:
 402:printf.c      ****       width--;
 3404              		.loc 1 402 8 view .LVU1037
 3405              	.LBE218:
 3406              	.LBE257:
 3407              	.LBB258:
 643:printf.c      ****         // post padding
 3408              		.loc 1 643 9 is_stmt 1 view .LVU1038
 643:printf.c      ****         // post padding
 3409              		.loc 1 643 9 is_stmt 0 discriminator 1 view .LVU1039
 3410 0a12 0A9B     		ldr	r3, [sp, #40]
 3411 0a14 4A46     		mov	r2, r9
 3412 0a16 1878     		ldrb	r0, [r3]	@ zero_extendqisi2
 3413 0a18 DDE90813 		ldrd	r1, r3, [sp, #32]
 3414 0a1c D847     		blx	fp
 3415              	.LVL427:
 645:printf.c      ****           while (l++ < width) {
 3416              		.loc 1 645 9 is_stmt 1 view .LVU1040
 3417              	.L376:
 643:printf.c      ****         // post padding
 3418              		.loc 1 643 9 is_stmt 0 discriminator 1 view .LVU1041
 3419 0a1e B146     		mov	r9, r6
 3420 0a20 6BE5     		b	.L342
 3421              	.LVL428:
 3422              	.L415:
 643:printf.c      ****         // post padding
 3423              		.loc 1 643 9 discriminator 1 view .LVU1042
 3424              	.LBE258:
 3425              	.LBB259:
 3426              	.LBB219:
 3427 0a22 D146     		mov	r9, r10
 3428 0a24 FFF709BB 		b	.L204
 3429              	.LVL429:
 3430              	.L548:
 643:printf.c      ****         // post padding
 3431              		.loc 1 643 9 discriminator 1 view .LVU1043
 3432              	.LBE219:
 3433              	.LBE259:
 3434              	.LBB260:
 613:printf.c      **** #endif
 3435              		.loc 1 613 13 is_stmt 1 view .LVU1044
 613:printf.c      **** #endif
 3436              		.loc 1 613 19 is_stmt 0 view .LVU1045
 3437 0a28 0732     		adds	r2, r2, #7
 3438 0a2a 22F00702 		bic	r2, r2, #7
 3439              	.LVL430:
 613:printf.c      **** #endif
 3440              		.loc 1 613 19 view .LVU1046
 3441 0a2e 5468     		ldr	r4, [r2, #4]
 3442              	.LVL431:
 3443              	.LBB154:
 3444              	.LBI140:
 274:printf.c      **** {
 3445              		.loc 1 274 15 is_stmt 1 view .LVU1047
 3446              	.LBB147:
 276:printf.c      ****   size_t len = 0U;
 3447              		.loc 1 276 3 view .LVU1048
 277:printf.c      **** 
 3448              		.loc 1 277 3 view .LVU1049
 280:printf.c      ****     flags &= ~FLAGS_HASH;
 3449              		.loc 1 280 3 view .LVU1050
 3450              	.LBE147:
 3451              	.LBE154:
 613:printf.c      **** #endif
 3452              		.loc 1 613 19 is_stmt 0 view .LVU1051
 3453 0a30 52F8081B 		ldr	r1, [r2], #8
 3454              	.LVL432:
 613:printf.c      **** #endif
 3455              		.loc 1 613 19 view .LVU1052
 3456 0a34 0A92     		str	r2, [sp, #40]
 3457              	.LBB155:
 3458              	.LBB148:
 280:printf.c      ****     flags &= ~FLAGS_HASH;
 3459              		.loc 1 280 6 view .LVU1053
 3460 0a36 51EA0402 		orrs	r2, r1, r4
 3461              	.LVL433:
 280:printf.c      ****     flags &= ~FLAGS_HASH;
 3462              		.loc 1 280 6 view .LVU1054
 3463              	.LBE148:
 3464              	.LBE155:
 613:printf.c      **** #endif
 3465              		.loc 1 613 19 view .LVU1055
 3466 0a3a 0846     		mov	r0, r1
 3467              	.LBB156:
 3468              	.LBB149:
 280:printf.c      ****     flags &= ~FLAGS_HASH;
 3469              		.loc 1 280 6 view .LVU1056
 3470 0a3c 40F0A280 		bne	.L272
 281:printf.c      ****   }
 3471              		.loc 1 281 5 is_stmt 1 view .LVU1057
 281:printf.c      ****   }
 3472              		.loc 1 281 11 is_stmt 0 view .LVU1058
 3473 0a40 23F01003 		bic	r3, r3, #16
 3474              	.LVL434:
 285:printf.c      ****     do {
 3475              		.loc 1 285 3 is_stmt 1 view .LVU1059
 285:printf.c      ****     do {
 3476              		.loc 1 285 6 is_stmt 0 view .LVU1060
 3477 0a44 002D     		cmp	r5, #0
 3478 0a46 00F09D80 		beq	.L272
 3479 0a4a 14AA     		add	r2, sp, #80
 277:printf.c      **** 
 3480              		.loc 1 277 10 view .LVU1061
 3481 0a4c 0027     		movs	r7, #0
 3482 0a4e 1292     		str	r2, [sp, #72]
 3483              	.LVL435:
 3484              	.L273:
 293:printf.c      **** }
 3485              		.loc 1 293 3 is_stmt 1 view .LVU1062
 293:printf.c      **** }
 3486              		.loc 1 293 10 is_stmt 0 view .LVU1063
 3487 0a50 0693     		str	r3, [sp, #24]
 3488 0a52 0B9B     		ldr	r3, [sp, #44]
 3489 0a54 CDF80CC0 		str	ip, [sp, #12]
 3490 0a58 CDE90463 		strd	r6, r3, [sp, #16]
 3491 0a5c 129B     		ldr	r3, [sp, #72]
 3492 0a5e 0093     		str	r3, [sp]
 3493 0a60 0023     		movs	r3, #0
 3494 0a62 0197     		str	r7, [sp, #4]
 3495 0a64 4A46     		mov	r2, r9
 3496 0a66 0293     		str	r3, [sp, #8]
 3497 0a68 A3E7     		b	.L527
 3498              	.LVL436:
 3499              	.L286:
 293:printf.c      **** }
 3500              		.loc 1 293 10 view .LVU1064
 3501 0a6a 13F0200F 		tst	r3, #32
 3502 0a6e 14BF     		ite	ne
 3503 0a70 4120     		movne	r0, #65
 3504 0a72 6120     		moveq	r0, #97
 3505              	.LBE149:
 3506              	.LBE156:
 3507              	.LBB157:
 3508              	.LBB117:
 3509              	.LBB116:
 3510              	.LBB112:
 263:printf.c      ****       value /= base;
 3511              		.loc 1 263 18 discriminator 7 view .LVU1065
 3512 0a74 A0F10A0E 		sub	lr, r0, #10
 3513 0a78 14A8     		add	r0, sp, #80
 3514 0a7a 1290     		str	r0, [sp, #72]
 3515 0a7c 0746     		mov	r7, r0
 3516 0a7e 03E0     		b	.L290
 3517              	.LVL437:
 3518              	.L560:
 263:printf.c      ****       value /= base;
 3519              		.loc 1 263 18 discriminator 7 view .LVU1066
 3520              	.LBE112:
 265:printf.c      ****   }
 3521              		.loc 1 265 20 discriminator 1 view .LVU1067
 3522 0a80 2029     		cmp	r1, #32
 3523 0a82 3FF4ADAD 		beq	.L287
 3524              	.LBB113:
 264:printf.c      ****     } while (value && (len < PRINTF_NTOA_BUFFER_SIZE));
 3525              		.loc 1 264 13 view .LVU1068
 3526 0a86 2A46     		mov	r2, r5
 3527              	.LVL438:
 3528              	.L290:
 264:printf.c      ****     } while (value && (len < PRINTF_NTOA_BUFFER_SIZE));
 3529              		.loc 1 264 13 view .LVU1069
 3530              	.LBE113:
 261:printf.c      ****       const char digit = (char)(value % base);
 3531              		.loc 1 261 5 is_stmt 1 view .LVU1070
 3532              	.LBB114:
 262:printf.c      ****       buf[len++] = digit < 10 ? '0' + digit : (flags & FLAGS_UPPERCASE ? 'A' : 'a') + digit - 10;
 3533              		.loc 1 262 7 view .LVU1071
 262:printf.c      ****       buf[len++] = digit < 10 ? '0' + digit : (flags & FLAGS_UPPERCASE ? 'A' : 'a') + digit - 10;
 3534              		.loc 1 262 39 is_stmt 0 view .LVU1072
 3535 0a88 B2FBFCF5 		udiv	r5, r2, ip
 3536 0a8c 0CFB152A 		mls	r10, ip, r5, r2
 262:printf.c      ****       buf[len++] = digit < 10 ? '0' + digit : (flags & FLAGS_UPPERCASE ? 'A' : 'a') + digit - 10;
 3537              		.loc 1 262 18 view .LVU1073
 3538 0a90 5FFA8AF0 		uxtb	r0, r10
 3539              	.LVL439:
 263:printf.c      ****       value /= base;
 3540              		.loc 1 263 7 is_stmt 1 view .LVU1074
 263:printf.c      ****       value /= base;
 3541              		.loc 1 263 18 is_stmt 0 view .LVU1075
 3542 0a94 BAF1090F 		cmp	r10, #9
 263:printf.c      ****       value /= base;
 3543              		.loc 1 263 18 discriminator 1 view .LVU1076
 3544 0a98 00F1300A 		add	r10, r0, #48
 263:printf.c      ****       value /= base;
 3545              		.loc 1 263 18 discriminator 7 view .LVU1077
 3546 0a9c 8ABF     		itet	hi
 3547 0a9e 7044     		addhi	r0, r0, lr
 3548              	.LVL440:
 263:printf.c      ****       value /= base;
 3549              		.loc 1 263 18 discriminator 1 view .LVU1078
 3550 0aa0 5FFA8AF0 		uxtbls	r0, r10
 263:printf.c      ****       value /= base;
 3551              		.loc 1 263 18 discriminator 7 view .LVU1079
 3552 0aa4 C0B2     		uxtbhi	r0, r0
 3553              	.LBE114:
 265:printf.c      ****   }
 3554              		.loc 1 265 20 view .LVU1080
 3555 0aa6 6245     		cmp	r2, ip
 3556              	.LBB115:
 263:printf.c      ****       value /= base;
 3557              		.loc 1 263 18 discriminator 8 view .LVU1081
 3558 0aa8 07F8010B 		strb	r0, [r7], #1
 263:printf.c      ****       value /= base;
 3559              		.loc 1 263 14 discriminator 8 view .LVU1082
 3560 0aac 01F10101 		add	r1, r1, #1
 3561              	.LVL441:
 264:printf.c      ****     } while (value && (len < PRINTF_NTOA_BUFFER_SIZE));
 3562              		.loc 1 264 7 is_stmt 1 view .LVU1083
 264:printf.c      ****     } while (value && (len < PRINTF_NTOA_BUFFER_SIZE));
 3563              		.loc 1 264 7 is_stmt 0 view .LVU1084
 3564              	.LBE115:
 265:printf.c      ****   }
 3565              		.loc 1 265 20 is_stmt 1 view .LVU1085
 3566 0ab0 E6D2     		bcs	.L560
 3567 0ab2 95E5     		b	.L287
 3568              	.LVL442:
 3569              	.L384:
 265:printf.c      ****   }
 3570              		.loc 1 265 20 is_stmt 0 view .LVU1086
 3571              	.LBE116:
 3572              	.LBE117:
 3573              	.LBE157:
 3574              	.LBE260:
 3575              	.LBB261:
 662:printf.c      ****             out(' ', buffer, idx++, maxlen);
 3576              		.loc 1 662 22 is_stmt 1 view .LVU1087
 662:printf.c      ****             out(' ', buffer, idx++, maxlen);
 3577              		.loc 1 662 22 is_stmt 0 view .LVU1088
 3578 0ab4 0B9B     		ldr	r3, [sp, #44]
 3579 0ab6 5345     		cmp	r3, r10
 3580 0ab8 40F24081 		bls	.L561
 3581              	.LVL443:
 3582              	.L356:
 662:printf.c      ****             out(' ', buffer, idx++, maxlen);
 3583              		.loc 1 662 22 view .LVU1089
 3584 0abc 0B9B     		ldr	r3, [sp, #44]
 3585 0abe 1296     		str	r6, [sp, #72]
 3586 0ac0 DDE90856 		ldrd	r5, r6, [sp, #32]
 3587 0ac4 4B44     		add	r3, r3, r9
 3588 0ac6 0A97     		str	r7, [sp, #40]
 3589 0ac8 A3EB0A0A 		sub	r10, r3, r10
 3590 0acc 6746     		mov	r7, ip
 3591              	.LVL444:
 3592              	.L359:
 663:printf.c      ****           }
 3593              		.loc 1 663 13 is_stmt 1 view .LVU1090
 3594 0ace 4A46     		mov	r2, r9
 3595              	.LVL445:
 663:printf.c      ****           }
 3596              		.loc 1 663 13 is_stmt 0 view .LVU1091
 3597 0ad0 3346     		mov	r3, r6
 3598 0ad2 09F10109 		add	r9, r9, #1
 3599              	.LVL446:
 663:printf.c      ****           }
 3600              		.loc 1 663 13 view .LVU1092
 3601 0ad6 2946     		mov	r1, r5
 3602 0ad8 2020     		movs	r0, #32
 3603 0ada D847     		blx	fp
 3604              	.LVL447:
 662:printf.c      ****             out(' ', buffer, idx++, maxlen);
 3605              		.loc 1 662 22 is_stmt 1 view .LVU1093
 662:printf.c      ****             out(' ', buffer, idx++, maxlen);
 3606              		.loc 1 662 22 is_stmt 0 view .LVU1094
 3607 0adc D145     		cmp	r9, r10
 3608 0ade F6D1     		bne	.L359
 3609              	.LVL448:
 667:printf.c      ****           out(*(p++), buffer, idx++, maxlen);
 3610              		.loc 1 667 17 view .LVU1095
 3611 0ae0 BC46     		mov	ip, r7
 3612 0ae2 0A9F     		ldr	r7, [sp, #40]
 3613              	.LVL449:
 667:printf.c      ****           out(*(p++), buffer, idx++, maxlen);
 3614              		.loc 1 667 17 view .LVU1096
 3615 0ae4 0B9B     		ldr	r3, [sp, #44]
 3616 0ae6 3878     		ldrb	r0, [r7]	@ zero_extendqisi2
 3617 0ae8 129E     		ldr	r6, [sp, #72]
 3618 0aea 03F1010A 		add	r10, r3, #1
 3619              	.LVL450:
 667:printf.c      ****           out(*(p++), buffer, idx++, maxlen);
 3620              		.loc 1 667 26 is_stmt 1 view .LVU1097
 3621 0aee 0028     		cmp	r0, #0
 3622 0af0 3FF4EEAB 		beq	.L358
 667:printf.c      ****           out(*(p++), buffer, idx++, maxlen);
 3623              		.loc 1 667 26 is_stmt 0 view .LVU1098
 3624 0af4 002C     		cmp	r4, #0
 3625 0af6 3FF49BAD 		beq	.L362
 3626 0afa 0024     		movs	r4, #0
 3627 0afc FFF7CBBB 		b	.L355
 3628              	.LVL451:
 3629              	.L553:
 667:printf.c      ****           out(*(p++), buffer, idx++, maxlen);
 3630              		.loc 1 667 26 view .LVU1099
 3631              	.LBE261:
 3632              	.LBB262:
 3633              	.LBB158:
 601:printf.c      ****             idx = _ntoa_long(out, buffer, idx, maxlen, (unsigned long)(value > 0 ? value : 0 - valu
 3634              		.loc 1 601 13 is_stmt 1 view .LVU1100
 601:printf.c      ****             idx = _ntoa_long(out, buffer, idx, maxlen, (unsigned long)(value > 0 ? value : 0 - valu
 3635              		.loc 1 601 24 is_stmt 0 view .LVU1101
 3636 0b00 1068     		ldr	r0, [r2]
 602:printf.c      ****           }
 3637              		.loc 1 602 13 is_stmt 1 view .LVU1102
 602:printf.c      ****           }
 3638              		.loc 1 602 19 is_stmt 0 view .LVU1103
 3639 0b02 C20F     		lsrs	r2, r0, #31
 3640              	.LVL452:
 3641              	.LBB98:
 3642              	.LBI98:
 249:printf.c      **** {
 3643              		.loc 1 249 15 is_stmt 1 view .LVU1104
 3644              	.LBB99:
 251:printf.c      ****   size_t len = 0U;
 3645              		.loc 1 251 3 view .LVU1105
 252:printf.c      **** 
 3646              		.loc 1 252 3 view .LVU1106
 255:printf.c      ****     flags &= ~FLAGS_HASH;
 3647              		.loc 1 255 3 view .LVU1107
 255:printf.c      ****     flags &= ~FLAGS_HASH;
 3648              		.loc 1 255 6 is_stmt 0 view .LVU1108
 3649 0b04 0028     		cmp	r0, #0
 3650 0b06 00F0BC80 		beq	.L260
 3651              	.LBE99:
 3652              	.LBE98:
 602:printf.c      ****           }
 3653              		.loc 1 602 56 view .LVU1109
 3654 0b0a 80EAE073 		eor	r3, r0, r0, asr #31
 3655 0b0e A3EBE073 		sub	r3, r3, r0, asr #31
 3656              	.L261:
 3657              	.LVL453:
 602:printf.c      ****           }
 3658              		.loc 1 602 56 view .LVU1110
 3659 0b12 14A8     		add	r0, sp, #80
 3660              	.LVL454:
 3661              	.LBB105:
 3662              	.LBB103:
 3663              	.LBB100:
 262:printf.c      ****       buf[len++] = digit < 10 ? '0' + digit : (flags & FLAGS_UPPERCASE ? 'A' : 'a') + digit - 10;
 3664              		.loc 1 262 39 view .LVU1111
 3665 0b14 DFF894C2 		ldr	ip, .L573
 3666 0b18 1290     		str	r0, [sp, #72]
 3667 0b1a 01E0     		b	.L263
 3668              	.LVL455:
 3669              	.L562:
 262:printf.c      ****       buf[len++] = digit < 10 ? '0' + digit : (flags & FLAGS_UPPERCASE ? 'A' : 'a') + digit - 10;
 3670              		.loc 1 262 39 view .LVU1112
 3671              	.LBE100:
 265:printf.c      ****   }
 3672              		.loc 1 265 20 discriminator 1 view .LVU1113
 3673 0b1c 202C     		cmp	r4, #32
 3674 0b1e 10D0     		beq	.L262
 3675              	.LVL456:
 3676              	.L263:
 261:printf.c      ****       const char digit = (char)(value % base);
 3677              		.loc 1 261 5 is_stmt 1 view .LVU1114
 3678              	.LBB101:
 262:printf.c      ****       buf[len++] = digit < 10 ? '0' + digit : (flags & FLAGS_UPPERCASE ? 'A' : 'a') + digit - 10;
 3679              		.loc 1 262 7 view .LVU1115
 263:printf.c      ****       value /= base;
 3680              		.loc 1 263 7 view .LVU1116
 262:printf.c      ****       buf[len++] = digit < 10 ? '0' + digit : (flags & FLAGS_UPPERCASE ? 'A' : 'a') + digit - 10;
 3681              		.loc 1 262 39 is_stmt 0 view .LVU1117
 3682 0b20 ACFB0375 		umull	r7, r5, ip, r3
 3683 0b24 ED08     		lsrs	r5, r5, #3
 3684 0b26 05EB8507 		add	r7, r5, r5, lsl #2
 3685 0b2a A3EB4707 		sub	r7, r3, r7, lsl #1
 3686 0b2e 9E46     		mov	lr, r3
 263:printf.c      ****       value /= base;
 3687              		.loc 1 263 18 discriminator 1 view .LVU1118
 3688 0b30 3037     		adds	r7, r7, #48
 3689              	.LBE101:
 265:printf.c      ****   }
 3690              		.loc 1 265 20 view .LVU1119
 3691 0b32 BEF1090F 		cmp	lr, #9
 3692              	.LBB102:
 263:printf.c      ****       value /= base;
 3693              		.loc 1 263 18 discriminator 8 view .LVU1120
 3694 0b36 00F8017B 		strb	r7, [r0], #1
 263:printf.c      ****       value /= base;
 3695              		.loc 1 263 14 discriminator 8 view .LVU1121
 3696 0b3a 04F10104 		add	r4, r4, #1
 3697              	.LVL457:
 264:printf.c      ****     } while (value && (len < PRINTF_NTOA_BUFFER_SIZE));
 3698              		.loc 1 264 7 is_stmt 1 view .LVU1122
 264:printf.c      ****     } while (value && (len < PRINTF_NTOA_BUFFER_SIZE));
 3699              		.loc 1 264 13 is_stmt 0 view .LVU1123
 3700 0b3e 2B46     		mov	r3, r5
 3701              	.LVL458:
 264:printf.c      ****     } while (value && (len < PRINTF_NTOA_BUFFER_SIZE));
 3702              		.loc 1 264 13 view .LVU1124
 3703              	.LBE102:
 265:printf.c      ****   }
 3704              		.loc 1 265 20 is_stmt 1 view .LVU1125
 3705 0b40 ECD8     		bhi	.L562
 3706              	.LVL459:
 3707              	.L262:
 268:printf.c      **** }
 3708              		.loc 1 268 3 view .LVU1126
 268:printf.c      **** }
 3709              		.loc 1 268 10 is_stmt 0 view .LVU1127
 3710 0b42 0B9B     		ldr	r3, [sp, #44]
 3711 0b44 0691     		str	r1, [sp, #24]
 3712 0b46 CDE90463 		strd	r6, r3, [sp, #16]
 3713 0b4a CDE90142 		strd	r4, r2, [sp, #4]
 3714 0b4e 3EE6     		b	.L528
 3715              	.LVL460:
 3716              	.L546:
 268:printf.c      **** }
 3717              		.loc 1 268 10 view .LVU1128
 3718              	.LBE103:
 3719              	.LBE105:
 3720              	.LBE158:
 573:printf.c      ****           flags &= ~FLAGS_HASH;   // no hash for dec format
 3721              		.loc 1 573 11 is_stmt 1 view .LVU1129
 574:printf.c      ****         }
 3722              		.loc 1 574 11 view .LVU1130
 582:printf.c      ****           flags &= ~(FLAGS_PLUS | FLAGS_SPACE);
 3723              		.loc 1 582 12 is_stmt 0 view .LVU1131
 3724 0b50 6928     		cmp	r0, #105
 574:printf.c      ****         }
 3725              		.loc 1 574 17 view .LVU1132
 3726 0b52 24F01001 		bic	r1, r4, #16
 3727              	.LVL461:
 577:printf.c      ****           flags |= FLAGS_UPPERCASE;
 3728              		.loc 1 577 9 is_stmt 1 view .LVU1133
 582:printf.c      ****           flags &= ~(FLAGS_PLUS | FLAGS_SPACE);
 3729              		.loc 1 582 9 view .LVU1134
 582:printf.c      ****           flags &= ~(FLAGS_PLUS | FLAGS_SPACE);
 3730              		.loc 1 582 12 is_stmt 0 view .LVU1135
 3731 0b56 40F0B080 		bne	.L563
 587:printf.c      ****           flags &= ~FLAGS_ZEROPAD;
 3732              		.loc 1 587 9 is_stmt 1 view .LVU1136
 587:printf.c      ****           flags &= ~FLAGS_ZEROPAD;
 3733              		.loc 1 587 12 is_stmt 0 view .LVU1137
 3734 0b5a 14F48063 		ands	r3, r4, #1024
 3735 0b5e 3FF4FBAD 		beq	.L247
 3736 0b62 F5E5     		b	.L246
 3737              	.LVL462:
 3738              	.L354:
 587:printf.c      ****           flags &= ~FLAGS_ZEROPAD;
 3739              		.loc 1 587 12 view .LVU1138
 3740              	.LBE262:
 3741              	.LBB263:
 662:printf.c      ****             out(' ', buffer, idx++, maxlen);
 3742              		.loc 1 662 22 is_stmt 1 view .LVU1139
 662:printf.c      ****             out(' ', buffer, idx++, maxlen);
 3743              		.loc 1 662 22 is_stmt 0 view .LVU1140
 3744 0b64 0B9B     		ldr	r3, [sp, #44]
 3745 0b66 5345     		cmp	r3, r10
 662:printf.c      ****             out(' ', buffer, idx++, maxlen);
 3746              		.loc 1 662 19 view .LVU1141
 3747 0b68 98BF     		it	ls
 3748 0b6a 0AF1010A 		addls	r10, r10, #1
 662:printf.c      ****             out(' ', buffer, idx++, maxlen);
 3749              		.loc 1 662 22 view .LVU1142
 3750 0b6e 7FF692AB 		bls	.L355
 3751              	.LVL463:
 3752              	.L428:
 662:printf.c      ****             out(' ', buffer, idx++, maxlen);
 3753              		.loc 1 662 22 view .LVU1143
 3754 0b72 4FF48064 		mov	r4, #1024
 3755 0b76 A1E7     		b	.L356
 3756              	.LVL464:
 3757              	.L267:
 662:printf.c      ****             out(' ', buffer, idx++, maxlen);
 3758              		.loc 1 662 22 view .LVU1144
 3759              	.LBE263:
 3760              	.LBB264:
 3761              	.LBB159:
 3762              	.LBB138:
 3763              	.LBB136:
 256:printf.c      ****   }
 3764              		.loc 1 256 5 is_stmt 1 view .LVU1145
 260:printf.c      ****     do {
 3765              		.loc 1 260 3 view .LVU1146
 260:printf.c      ****     do {
 3766              		.loc 1 260 6 is_stmt 0 view .LVU1147
 3767 0b78 002B     		cmp	r3, #0
 3768 0b7a 3FF40AAE 		beq	.L268
 3769 0b7e 14AB     		add	r3, sp, #80
 3770 0b80 1293     		str	r3, [sp, #72]
 3771 0b82 1EE6     		b	.L269
 3772              	.LVL465:
 3773              	.L272:
 260:printf.c      ****     do {
 3774              		.loc 1 260 6 view .LVU1148
 3775 0b84 13F0200F 		tst	r3, #32
 3776 0b88 14BF     		ite	ne
 3777 0b8a 4122     		movne	r2, #65
 3778 0b8c 6122     		moveq	r2, #97
 3779              	.LBE136:
 3780              	.LBE138:
 3781              	.LBE159:
 3782              	.LBB160:
 3783              	.LBB150:
 3784              	.LBB142:
 288:printf.c      ****       value /= base;
 3785              		.loc 1 288 18 discriminator 7 view .LVU1149
 3786 0b8e A2F10A01 		sub	r1, r2, #10
 3787 0b92 14AA     		add	r2, sp, #80
 3788 0b94 0E96     		str	r6, [sp, #56]
 3789 0b96 CDF84090 		str	r9, [sp, #64]
 3790 0b9a 1292     		str	r2, [sp, #72]
 288:printf.c      ****       value /= base;
 3791              		.loc 1 288 54 discriminator 2 view .LVU1150
 3792 0b9c 0027     		movs	r7, #0
 3793 0b9e 0C93     		str	r3, [sp, #48]
 3794 0ba0 CDF84CC0 		str	ip, [sp, #76]
 3795 0ba4 1646     		mov	r6, r2
 3796 0ba6 0546     		mov	r5, r0
 3797 0ba8 8946     		mov	r9, r1
 3798 0baa 03E0     		b	.L276
 3799              	.LVL466:
 3800              	.L564:
 288:printf.c      ****       value /= base;
 3801              		.loc 1 288 54 discriminator 2 view .LVU1151
 3802              	.LBE142:
 290:printf.c      ****   }
 3803              		.loc 1 290 20 discriminator 1 view .LVU1152
 3804 0bac 202F     		cmp	r7, #32
 3805 0bae 17D0     		beq	.L512
 3806              	.LBB143:
 289:printf.c      ****     } while (value && (len < PRINTF_NTOA_BUFFER_SIZE));
 3807              		.loc 1 289 13 view .LVU1153
 3808 0bb0 0546     		mov	r5, r0
 3809 0bb2 0C46     		mov	r4, r1
 3810              	.LVL467:
 3811              	.L276:
 289:printf.c      ****     } while (value && (len < PRINTF_NTOA_BUFFER_SIZE));
 3812              		.loc 1 289 13 view .LVU1154
 3813              	.LBE143:
 286:printf.c      ****       const char digit = (char)(value % base);
 3814              		.loc 1 286 5 is_stmt 1 view .LVU1155
 3815              	.LBB144:
 287:printf.c      ****       buf[len++] = digit < 10 ? '0' + digit : (flags & FLAGS_UPPERCASE ? 'A' : 'a') + digit - 10;
 3816              		.loc 1 287 7 view .LVU1156
 3817 0bb4 2146     		mov	r1, r4
 3818 0bb6 5246     		mov	r2, r10
 3819 0bb8 0023     		movs	r3, #0
 3820 0bba 2846     		mov	r0, r5
 3821 0bbc FFF7FEFF 		bl	__aeabi_uldivmod
 3822              	.LVL468:
 287:printf.c      ****       buf[len++] = digit < 10 ? '0' + digit : (flags & FLAGS_UPPERCASE ? 'A' : 'a') + digit - 10;
 3823              		.loc 1 287 18 is_stmt 0 view .LVU1157
 3824 0bc0 D2B2     		uxtb	r2, r2
 3825              	.LVL469:
 288:printf.c      ****       value /= base;
 3826              		.loc 1 288 7 is_stmt 1 view .LVU1158
 288:printf.c      ****       value /= base;
 3827              		.loc 1 288 18 is_stmt 0 view .LVU1159
 3828 0bc2 092A     		cmp	r2, #9
 288:printf.c      ****       value /= base;
 3829              		.loc 1 288 18 discriminator 1 view .LVU1160
 3830 0bc4 02F13003 		add	r3, r2, #48
 288:printf.c      ****       value /= base;
 3831              		.loc 1 288 18 discriminator 7 view .LVU1161
 3832 0bc8 88BF     		it	hi
 3833 0bca 02EB0903 		addhi	r3, r2, r9
 3834              	.LBE144:
 290:printf.c      ****   }
 3835              		.loc 1 290 20 view .LVU1162
 3836 0bce 5545     		cmp	r5, r10
 3837              	.LBB145:
 288:printf.c      ****       value /= base;
 3838              		.loc 1 288 18 discriminator 7 view .LVU1163
 3839 0bd0 DBB2     		uxtb	r3, r3
 3840              	.LBE145:
 290:printf.c      ****   }
 3841              		.loc 1 290 20 view .LVU1164
 3842 0bd2 74F10004 		sbcs	r4, r4, #0
 3843              	.LVL470:
 3844              	.LBB146:
 288:printf.c      ****       value /= base;
 3845              		.loc 1 288 18 discriminator 8 view .LVU1165
 3846 0bd6 06F8013B 		strb	r3, [r6], #1
 288:printf.c      ****       value /= base;
 3847              		.loc 1 288 14 discriminator 8 view .LVU1166
 3848 0bda 07F10107 		add	r7, r7, #1
 3849              	.LVL471:
 289:printf.c      ****     } while (value && (len < PRINTF_NTOA_BUFFER_SIZE));
 3850              		.loc 1 289 7 is_stmt 1 view .LVU1167
 289:printf.c      ****     } while (value && (len < PRINTF_NTOA_BUFFER_SIZE));
 3851              		.loc 1 289 7 is_stmt 0 view .LVU1168
 3852              	.LBE146:
 290:printf.c      ****   }
 3853              		.loc 1 290 20 is_stmt 1 view .LVU1169
 3854 0bde E5D2     		bcs	.L564
 3855              	.L512:
 3856 0be0 0C9B     		ldr	r3, [sp, #48]
 3857 0be2 0E9E     		ldr	r6, [sp, #56]
 3858 0be4 DDF84090 		ldr	r9, [sp, #64]
 3859 0be8 DDF84CC0 		ldr	ip, [sp, #76]
 3860 0bec 30E7     		b	.L273
 3861              	.LVL472:
 3862              	.L549:
 290:printf.c      ****   }
 3863              		.loc 1 290 20 is_stmt 0 view .LVU1170
 3864              	.LBE150:
 3865              	.LBE160:
 617:printf.c      ****           }
 3866              		.loc 1 617 13 is_stmt 1 view .LVU1171
 617:printf.c      ****           }
 3867              		.loc 1 617 19 is_stmt 0 view .LVU1172
 3868 0bee 1268     		ldr	r2, [r2]
 3869              	.LVL473:
 3870              	.LBB161:
 3871              	.LBI161:
 249:printf.c      **** {
 3872              		.loc 1 249 15 is_stmt 1 view .LVU1173
 3873              	.LBB162:
 251:printf.c      ****   size_t len = 0U;
 3874              		.loc 1 251 3 view .LVU1174
 252:printf.c      **** 
 3875              		.loc 1 252 3 view .LVU1175
 255:printf.c      ****     flags &= ~FLAGS_HASH;
 3876              		.loc 1 255 3 view .LVU1176
 255:printf.c      ****     flags &= ~FLAGS_HASH;
 3877              		.loc 1 255 6 is_stmt 0 view .LVU1177
 3878 0bf0 E2B9     		cbnz	r2, .L278
 256:printf.c      ****   }
 3879              		.loc 1 256 5 is_stmt 1 view .LVU1178
 256:printf.c      ****   }
 3880              		.loc 1 256 11 is_stmt 0 view .LVU1179
 3881 0bf2 23F01003 		bic	r3, r3, #16
 3882              	.LVL474:
 260:printf.c      ****     do {
 3883              		.loc 1 260 3 is_stmt 1 view .LVU1180
 260:printf.c      ****     do {
 3884              		.loc 1 260 6 is_stmt 0 view .LVU1181
 3885 0bf6 CDB1     		cbz	r5, .L278
 3886 0bf8 14AA     		add	r2, sp, #80
 3887 0bfa 1292     		str	r2, [sp, #72]
 3888              	.LVL475:
 3889              	.L279:
 268:printf.c      **** }
 3890              		.loc 1 268 3 is_stmt 1 view .LVU1182
 268:printf.c      **** }
 3891              		.loc 1 268 10 is_stmt 0 view .LVU1183
 3892 0bfc 0693     		str	r3, [sp, #24]
 3893 0bfe 0B9B     		ldr	r3, [sp, #44]
 3894 0c00 CDF80CC0 		str	ip, [sp, #12]
 3895 0c04 CDE90463 		strd	r6, r3, [sp, #16]
 3896 0c08 0190     		str	r0, [sp, #4]
 3897 0c0a F0E4     		b	.L526
 3898              	.LVL476:
 3899              	.L543:
 268:printf.c      **** }
 3900              		.loc 1 268 10 view .LVU1184
 3901              	.LBE162:
 3902              	.LBE161:
 3903              	.LBE264:
 3904              	.LBB265:
 3905              	.LBB220:
 410:printf.c      ****     if (negative) {
 3906              		.loc 1 410 3 is_stmt 1 view .LVU1185
 410:printf.c      ****     if (negative) {
 3907              		.loc 1 410 6 is_stmt 0 view .LVU1186
 3908 0c0c 202E     		cmp	r6, #32
 3909 0c0e 3FF455AC 		beq	.L424
 411:printf.c      ****       buf[len++] = '-';
 3910              		.loc 1 411 5 is_stmt 1 view .LVU1187
 411:printf.c      ****       buf[len++] = '-';
 3911              		.loc 1 411 8 is_stmt 0 view .LVU1188
 3912 0c12 139B     		ldr	r3, [sp, #76]
 3913 0c14 002B     		cmp	r3, #0
 3914 0c16 79D0     		beq	.L378
 412:printf.c      ****     }
 3915              		.loc 1 412 7 is_stmt 1 view .LVU1189
 412:printf.c      ****     }
 3916              		.loc 1 412 14 is_stmt 0 view .LVU1190
 3917 0c18 0136     		adds	r6, r6, #1
 3918              	.LVL477:
 412:printf.c      ****     }
 3919              		.loc 1 412 18 view .LVU1191
 3920 0c1a 2D22     		movs	r2, #45
 3921              	.LVL478:
 3922              	.L523:
 412:printf.c      ****     }
 3923              		.loc 1 412 18 view .LVU1192
 3924 0c1c 0B99     		ldr	r1, [sp, #44]
 3925 0c1e 0DEB0103 		add	r3, sp, r1
 3926 0c22 CA46     		mov	r10, r9
 3927 0c24 83F85020 		strb	r2, [r3, #80]
 423:printf.c      ****     for (size_t i = len; i < width; i++) {
 3928              		.loc 1 423 3 is_stmt 1 view .LVU1193
 3929              	.LVL479:
 3930              	.LBB208:
 424:printf.c      ****       out(' ', buffer, idx++, maxlen);
 3931              		.loc 1 424 28 discriminator 1 view .LVU1194
 3932              	.LBE208:
 412:printf.c      ****     }
 3933              		.loc 1 412 18 is_stmt 0 view .LVU1195
 3934 0c28 0B46     		mov	r3, r1
 3935              	.LVL480:
 412:printf.c      ****     }
 3936              		.loc 1 412 18 view .LVU1196
 3937 0c2a 27E6     		b	.L323
 3938              	.LVL481:
 3939              	.L278:
 412:printf.c      ****     }
 3940              		.loc 1 412 18 view .LVU1197
 3941 0c2c 13F0200F 		tst	r3, #32
 3942 0c30 14BF     		ite	ne
 3943 0c32 4121     		movne	r1, #65
 3944 0c34 6121     		moveq	r1, #97
 3945              	.LBE220:
 3946              	.LBE265:
 3947              	.LBB266:
 3948              	.LBB168:
 3949              	.LBB167:
 3950              	.LBB163:
 263:printf.c      ****       value /= base;
 3951              		.loc 1 263 18 discriminator 7 view .LVU1198
 3952 0c36 A1F10A0E 		sub	lr, r1, #10
 3953 0c3a 14A9     		add	r1, sp, #80
 3954 0c3c 1291     		str	r1, [sp, #72]
 3955 0c3e 0F46     		mov	r7, r1
 3956 0c40 02E0     		b	.L282
 3957              	.LVL482:
 3958              	.L565:
 263:printf.c      ****       value /= base;
 3959              		.loc 1 263 18 discriminator 7 view .LVU1199
 3960              	.LBE163:
 265:printf.c      ****   }
 3961              		.loc 1 265 20 discriminator 1 view .LVU1200
 3962 0c42 2028     		cmp	r0, #32
 3963 0c44 DAD0     		beq	.L279
 3964              	.LBB164:
